cgvar._bufferdict
BufferDict
p0
(tRp1
(dp2
S'layout'
p3
ccollections
OrderedDict
p4
((lp5
(lp6
S'a'
p7
a(I0
(ttp8
aa(lp9
S'b'
p10
a(I1
(ttp11
aatp12
Rp13
sS'buf'
p14
(cnumpy.core.multiarray
_reconstruct
p15
(cnumpy
ndarray
p16
(I0
tp17
g10
tp18
Rp19
(I1
(I2
tp20
cnumpy
dtype
p21
(S'f8'
p22
I0
I1
tp23
Rp24
(I3
S'<'
p25
NNNI-1
I-1
I0
tp26
bI00
S'\xc19[\x18\xd5-\xd0?6\x04\x90X\x85\xb8\xdc?'
p27
tp28
bg15
(g16
(I0
tp29
g10
tp30
Rp31
(I1
(I2
I2
tp32
g24
I00
S'\xeb\x9d\xbb\x14\xfc\x1bQ?"B?_9\x97@?"B?_9\x97@?\xb1V\xfe\x89z(q?'
p33
tp34
btp35
sb.