Certificate:
    Data:
        Version: 3 (0x2)
        Serial Number: 268435676 (0x100000dc)
    Signature Algorithm: sha256WithRSAEncryption
        Issuer: C=DE, ST=Hessen, O=privacyidea, CN=CA001
        Validity
            Not Before: Mar 20 08:51:22 2019 GMT
            Not After : Apr  8 08:51:22 2021 GMT
        Subject: CN=Steve Test/emailAddress=steve@openssl.org
        Subject Public Key Info:
            Public Key Algorithm: rsaEncryption
                Public-Key: (2048 bit)
                Modulus:
                    00:d2:81:89:20:51:48:0f:73:f4:11:32:24:d5:1f:
                    1c:fd:5c:f5:b6:e6:c5:f0:52:81:dc:d2:af:66:4a:
                    7c:93:31:61:5c:af:d1:6d:06:70:03:60:7c:72:0c:
                    88:dd:49:cd:9e:02:6c:d2:5a:d7:53:0f:f3:da:be:
                    69:64:b5:0f:0c:00:e3:b3:50:47:a3:b3:9b:ba:13:
                    50:d6:58:5a:4b:ab:39:e0:11:ca:0a:27:67:03:78:
                    22:66:6d:92:1e:1b:5c:49:ae:e6:6b:d1:8e:3b:9d:
                    06:d3:c6:ac:4d:53:43:10:ab:e8:96:c1:87:82:97:
                    99:8f:20:d3:99:12:37:31:84:e1:8a:ff:29:03:5f:
                    22:90:3e:7f:9b:e0:20:c1:ad:dc:ae:4c:39:1a:31:
                    96:17:02:8c:b2:d9:b4:0d:20:12:9b:7d:86:54:fd:
                    33:fd:c1:2a:62:46:f8:60:96:cf:6e:01:6f:22:df:
                    13:47:e7:97:ec:05:72:23:a3:62:f8:fa:ef:ac:9c:
                    72:f0:37:cb:2f:37:cf:90:a8:27:51:86:c6:d7:78:
                    08:8f:7e:25:a2:15:70:a2:fb:1c:b6:15:5e:a0:97:
                    8b:81:4c:09:28:8a:27:3b:94:bc:71:db:5b:71:37:
                    9a:2b:16:e0:6f:b5:c9:f5:4b:4f:20:ba:65:cf:af:
                    ad:ad
                Exponent: 65537 (0x10001)
        X509v3 extensions:
            X509v3 Key Usage: 
                Digital Signature, Key Encipherment
            X509v3 Basic Constraints: 
                CA:FALSE
            Netscape Cert Type: 
                SSL Server
            Netscape Comment: 
                OpenSSL Generated Server Certificate
            X509v3 Subject Key Identifier: 
                E5:25:6D:3E:AF:0D:DD:3F:4C:F2:45:19:39:D5:14:DB:7E:9C:C0:AD
            X509v3 Authority Key Identifier: 
                keyid:F4:A7:C0:CC:91:46:AF:64:F3:91:F2:27:F8:C8:B2:6F:8A:87:32:73
                DirName:/C=DE/ST=Hessen/O=privacyidea/CN=CA001
                serial:FB:C8:EB:AC:83:CD:12:07

            X509v3 Extended Key Usage: 
                TLS Web Server Authentication
    Signature Algorithm: sha256WithRSAEncryption
         8a:9f:db:b6:b0:82:4d:d3:44:75:bd:59:4e:bf:4f:90:1f:e9:
         31:47:a8:d9:5e:23:4f:91:c5:4a:6e:26:a1:6b:89:62:e4:b7:
         3d:2f:29:50:98:6c:70:f5:20:a0:a3:8e:89:50:02:c1:f5:b0:
         82:a1:fd:84:fb:81:ec:10:71:cb:ad:77:70:c3:b7:99:b3:92:
         eb:65:ac:3e:e3:41:26:6c:27:00:3f:6b:4d:cc:9b:10:2c:25:
         e9:04:4c:f9:fc:45:5e:9a:6e:fb:4e:46:24:e8:7e:fe:46:34:
         0f:97:e7:b5:79:b9:f0:63:17:e3:33:20:07:a1:a7:7e:52:ef:
         3f:de:f1:a5:9e:9f:36:eb:ec:12:d5:24:6a:75:ef:fb:a6:ad:
         62:f8:dd:dc:ad:6b:eb:ca:41:43:0f:f5:4e:85:86:2c:fb:25:
         57:85:a3:ec:6b:07:b8:f4:05:b3:38:4c:41:a2:7c:87:86:7e:
         d2:f5:d1:11:e7:08:10:0f:5b:42:04:a8:49:83:24:27:2f:4c:
         e3:4a:30:85:cc:f5:01:df:90:da:66:fb:00:5f:84:b1:38:ce:
         71:d4:0d:8c:d3:f1:0f:57:32:d2:28:bf:b5:e2:ea:5e:ef:f8:
         db:85:a1:09:44:1c:23:c7:b5:d0:f1:d9:b4:16:6b:99:d7:94:
         94:05:89:3c
-----BEGIN CERTIFICATE-----
MIIECTCCAvGgAwIBAgIEEAAA3DANBgkqhkiG9w0BAQsFADBEMQswCQYDVQQGEwJE
RTEPMA0GA1UECAwGSGVzc2VuMRQwEgYDVQQKDAtwcml2YWN5aWRlYTEOMAwGA1UE
AwwFQ0EwMDEwHhcNMTkwMzIwMDg1MTIyWhcNMjEwNDA4MDg1MTIyWjA3MRMwEQYD
VQQDDApTdGV2ZSBUZXN0MSAwHgYJKoZIhvcNAQkBFhFzdGV2ZUBvcGVuc3NsLm9y
ZzCCASIwDQYJKoZIhvcNAQEBBQADggEPADCCAQoCggEBANKBiSBRSA9z9BEyJNUf
HP1c9bbmxfBSgdzSr2ZKfJMxYVyv0W0GcANgfHIMiN1JzZ4CbNJa11MP89q+aWS1
DwwA47NQR6Ozm7oTUNZYWkurOeARygonZwN4ImZtkh4bXEmu5mvRjjudBtPGrE1T
QxCr6JbBh4KXmY8g05kSNzGE4Yr/KQNfIpA+f5vgIMGt3K5MORoxlhcCjLLZtA0g
Ept9hlT9M/3BKmJG+GCWz24BbyLfE0fnl+wFciOjYvj676yccvA3yy83z5CoJ1GG
xtd4CI9+JaIVcKL7HLYVXqCXi4FMCSiKJzuUvHHbW3E3misW4G+1yfVLTyC6Zc+v
ra0CAwEAAaOCAQ4wggEKMAsGA1UdDwQEAwIFoDAJBgNVHRMEAjAAMBEGCWCGSAGG
+EIBAQQEAwIGQDAzBglghkgBhvhCAQ0EJhYkT3BlblNTTCBHZW5lcmF0ZWQgU2Vy
dmVyIENlcnRpZmljYXRlMB0GA1UdDgQWBBTlJW0+rw3dP0zyRRk51RTbfpzArTB0
BgNVHSMEbTBrgBT0p8DMkUavZPOR8if4yLJviocyc6FIpEYwRDELMAkGA1UEBhMC
REUxDzANBgNVBAgMBkhlc3NlbjEUMBIGA1UECgwLcHJpdmFjeWlkZWExDjAMBgNV
BAMMBUNBMDAxggkA+8jrrIPNEgcwEwYDVR0lBAwwCgYIKwYBBQUHAwEwDQYJKoZI
hvcNAQELBQADggEBAIqf27awgk3TRHW9WU6/T5Af6TFHqNleI0+RxUpuJqFriWLk
tz0vKVCYbHD1IKCjjolQAsH1sIKh/YT7gewQccutd3DDt5mzkutlrD7jQSZsJwA/
a03MmxAsJekETPn8RV6abvtORiTofv5GNA+X57V5ufBjF+MzIAehp35S7z/e8aWe
nzbr7BLVJGp17/umrWL43dyta+vKQUMP9U6Fhiz7JVeFo+xrB7j0BbM4TEGifIeG
ftL10RHnCBAPW0IEqEmDJCcvTONKMIXM9QHfkNpm+wBfhLE4znHUDYzT8Q9XMtIo
v7Xi6l7v+NuFoQlEHCPHtdDx2bQWa5nXlJQFiTw=
-----END CERTIFICATE-----
