Certificate:
    Data:
        Version: 3 (0x2)
        Serial Number: 268435667 (0x100000d3)
    Signature Algorithm: sha256WithRSAEncryption
        Issuer: C=DE, ST=Hessen, O=privacyidea, CN=CA001
        Validity
            Not Before: Apr  5 08:38:03 2019 GMT
            Not After : Apr  4 08:38:03 2020 GMT
        Subject: CN=Steve Test/emailAddress=steve@openssl.org
        Subject Public Key Info:
            Public Key Algorithm: rsaEncryption
                Public-Key: (2048 bit)
                Modulus:
                    00:d2:81:89:20:51:48:0f:73:f4:11:32:24:d5:1f:
                    1c:fd:5c:f5:b6:e6:c5:f0:52:81:dc:d2:af:66:4a:
                    7c:93:31:61:5c:af:d1:6d:06:70:03:60:7c:72:0c:
                    88:dd:49:cd:9e:02:6c:d2:5a:d7:53:0f:f3:da:be:
                    69:64:b5:0f:0c:00:e3:b3:50:47:a3:b3:9b:ba:13:
                    50:d6:58:5a:4b:ab:39:e0:11:ca:0a:27:67:03:78:
                    22:66:6d:92:1e:1b:5c:49:ae:e6:6b:d1:8e:3b:9d:
                    06:d3:c6:ac:4d:53:43:10:ab:e8:96:c1:87:82:97:
                    99:8f:20:d3:99:12:37:31:84:e1:8a:ff:29:03:5f:
                    22:90:3e:7f:9b:e0:20:c1:ad:dc:ae:4c:39:1a:31:
                    96:17:02:8c:b2:d9:b4:0d:20:12:9b:7d:86:54:fd:
                    33:fd:c1:2a:62:46:f8:60:96:cf:6e:01:6f:22:df:
                    13:47:e7:97:ec:05:72:23:a3:62:f8:fa:ef:ac:9c:
                    72:f0:37:cb:2f:37:cf:90:a8:27:51:86:c6:d7:78:
                    08:8f:7e:25:a2:15:70:a2:fb:1c:b6:15:5e:a0:97:
                    8b:81:4c:09:28:8a:27:3b:94:bc:71:db:5b:71:37:
                    9a:2b:16:e0:6f:b5:c9:f5:4b:4f:20:ba:65:cf:af:
                    ad:ad
                Exponent: 65537 (0x10001)
        X509v3 extensions:
            X509v3 Key Usage: 
                Digital Signature, Key Encipherment
            X509v3 Basic Constraints: 
                CA:FALSE
            Netscape Cert Type: 
                SSL Server
            Netscape Comment: 
                OpenSSL Generated Server Certificate
            X509v3 Subject Key Identifier: 
                E5:25:6D:3E:AF:0D:DD:3F:4C:F2:45:19:39:D5:14:DB:7E:9C:C0:AD
            X509v3 Authority Key Identifier: 
                keyid:F4:A7:C0:CC:91:46:AF:64:F3:91:F2:27:F8:C8:B2:6F:8A:87:32:73
                DirName:/C=DE/ST=Hessen/O=privacyidea/CN=CA001
                serial:FB:C8:EB:AC:83:CD:12:07

            X509v3 Extended Key Usage: 
                TLS Web Server Authentication
    Signature Algorithm: sha256WithRSAEncryption
         9d:11:a1:67:c8:96:ba:a1:39:28:19:e4:15:79:66:a6:ae:aa:
         25:0b:72:1a:68:48:1b:73:4e:db:46:96:04:82:5e:a1:58:ea:
         63:3a:62:7a:92:1d:e5:e7:df:80:da:bc:aa:08:be:e8:3d:b3:
         6b:bd:af:91:43:24:fc:3b:52:3a:56:d7:a7:04:ec:5f:df:eb:
         7f:92:03:12:1e:ad:71:c4:18:92:9c:ec:da:50:8b:93:1b:a8:
         8c:e3:b6:8e:08:03:dd:a3:82:f1:93:01:9b:31:15:df:41:70:
         cc:7d:c0:0d:fe:9f:8a:88:9e:ae:7b:fa:a7:d0:81:84:8b:bd:
         ff:94:30:57:d3:9f:87:88:2b:a0:c0:48:c2:44:1a:90:59:ce:
         99:ee:a9:1f:d2:82:08:f6:e1:1a:d6:19:a7:d4:ec:73:fa:98:
         85:d3:e9:ad:69:9a:74:52:8d:55:60:06:81:cd:72:d7:4d:6b:
         02:70:85:ca:45:46:ff:73:5d:e3:97:64:ff:2b:59:c1:e1:75:
         43:94:4c:37:52:37:ec:f4:77:2f:5f:d7:7b:0d:5c:00:cf:75:
         d6:e0:62:7d:2c:bd:16:63:59:6e:93:79:de:ce:66:7d:08:c3:
         e0:0d:29:8b:a9:11:b9:7d:e2:c2:06:9b:1f:88:c5:1a:05:f6:
         d7:f6:b9:58
-----BEGIN CERTIFICATE-----
MIIECTCCAvGgAwIBAgIEEAAA0zANBgkqhkiG9w0BAQsFADBEMQswCQYDVQQGEwJE
RTEPMA0GA1UECAwGSGVzc2VuMRQwEgYDVQQKDAtwcml2YWN5aWRlYTEOMAwGA1UE
AwwFQ0EwMDEwHhcNMTkwNDA1MDgzODAzWhcNMjAwNDA0MDgzODAzWjA3MRMwEQYD
VQQDDApTdGV2ZSBUZXN0MSAwHgYJKoZIhvcNAQkBFhFzdGV2ZUBvcGVuc3NsLm9y
ZzCCASIwDQYJKoZIhvcNAQEBBQADggEPADCCAQoCggEBANKBiSBRSA9z9BEyJNUf
HP1c9bbmxfBSgdzSr2ZKfJMxYVyv0W0GcANgfHIMiN1JzZ4CbNJa11MP89q+aWS1
DwwA47NQR6Ozm7oTUNZYWkurOeARygonZwN4ImZtkh4bXEmu5mvRjjudBtPGrE1T
QxCr6JbBh4KXmY8g05kSNzGE4Yr/KQNfIpA+f5vgIMGt3K5MORoxlhcCjLLZtA0g
Ept9hlT9M/3BKmJG+GCWz24BbyLfE0fnl+wFciOjYvj676yccvA3yy83z5CoJ1GG
xtd4CI9+JaIVcKL7HLYVXqCXi4FMCSiKJzuUvHHbW3E3misW4G+1yfVLTyC6Zc+v
ra0CAwEAAaOCAQ4wggEKMAsGA1UdDwQEAwIFoDAJBgNVHRMEAjAAMBEGCWCGSAGG
+EIBAQQEAwIGQDAzBglghkgBhvhCAQ0EJhYkT3BlblNTTCBHZW5lcmF0ZWQgU2Vy
dmVyIENlcnRpZmljYXRlMB0GA1UdDgQWBBTlJW0+rw3dP0zyRRk51RTbfpzArTB0
BgNVHSMEbTBrgBT0p8DMkUavZPOR8if4yLJviocyc6FIpEYwRDELMAkGA1UEBhMC
REUxDzANBgNVBAgMBkhlc3NlbjEUMBIGA1UECgwLcHJpdmFjeWlkZWExDjAMBgNV
BAMMBUNBMDAxggkA+8jrrIPNEgcwEwYDVR0lBAwwCgYIKwYBBQUHAwEwDQYJKoZI
hvcNAQELBQADggEBAJ0RoWfIlrqhOSgZ5BV5ZqauqiULchpoSBtzTttGlgSCXqFY
6mM6YnqSHeXn34DavKoIvug9s2u9r5FDJPw7UjpW16cE7F/f63+SAxIerXHEGJKc
7NpQi5MbqIzjto4IA92jgvGTAZsxFd9BcMx9wA3+n4qInq57+qfQgYSLvf+UMFfT
n4eIK6DASMJEGpBZzpnuqR/Sggj24RrWGafU7HP6mIXT6a1pmnRSjVVgBoHNctdN
awJwhcpFRv9zXeOXZP8rWcHhdUOUTDdSN+z0dy9f13sNXADPddbgYn0svRZjWW6T
ed7OZn0Iw+ANKYupEbl94sIGmx+IxRoF9tf2uVg=
-----END CERTIFICATE-----
