Certificate:
    Data:
        Version: 3 (0x2)
        Serial Number: 268435671 (0x100000d7)
    Signature Algorithm: sha256WithRSAEncryption
        Issuer: C=DE, ST=Hessen, O=privacyidea, CN=CA001
        Validity
            Not Before: Apr  5 08:41:38 2019 GMT
            Not After : Apr  4 08:41:38 2020 GMT
        Subject: CN=selfservice,CN=user,O=realm1/emailAddress=meine
        Subject Public Key Info:
            Public Key Algorithm: rsaEncryption
                Public-Key: (2048 bit)
                Modulus:
                    00:cf:3c:d4:33:0e:12:c4:e6:da:cd:b6:56:a1:1c:
                    26:bb:26:1c:8a:4a:73:a8:58:8a:b6:1e:b3:8b:99:
                    d2:1d:07:c2:92:89:79:c0:69:d8:c8:df:28:61:98:
                    1e:b3:fe:ae:2b:bd:78:a9:f7:6e:47:dc:a3:a0:16:
                    8c:85:02:c1:4e:92:fd:72:6e:f0:c8:03:29:9b:b8:
                    00:6e:c0:83:95:c8:34:20:36:9c:b3:e5:e4:e6:76:
                    73:a3:1a:ad:40:96:e0:53:54:00:ec:76:79:9a:c6:
                    0d:7e:b6:bd:29:ec:83:f3:cb:89:a4:cb:6c:00:ba:
                    0c:c5:78:0f:ff:69:b8:94:f4:04:70:43:3f:d8:9e:
                    d7:a7:fb:5d:ce:75:8e:da:e7:c4:07:b1:9d:de:6f:
                    88:4b:b6:4d:9a:cf:f9:bc:fa:9f:cd:32:6d:f6:3a:
                    0b:0d:23:42:78:ec:97:42:bf:0e:4d:60:56:e1:d3:
                    02:f2:19:cb:84:57:90:e5:70:a1:a2:83:35:86:e2:
                    da:86:9f:f9:8a:c4:79:b3:52:28:da:cb:bb:34:ca:
                    d3:da:91:4a:cf:8d:76:a2:b2:6b:9b:f9:96:fd:09:
                    2a:da:11:23:4d:f0:cb:d6:b2:b1:0e:12:6c:9a:19:
                    65:98:87:ca:e4:ee:24:ce:44:ac:90:8f:9d:1b:c5:
                    2a:9d
                Exponent: 65537 (0x10001)
        X509v3 extensions:
            X509v3 Key Usage: 
                Digital Signature, Key Encipherment
            X509v3 Basic Constraints: 
                CA:FALSE
            Netscape Cert Type: 
                SSL Server
            Netscape Comment: 
                OpenSSL Generated Server Certificate
            X509v3 Subject Key Identifier: 
                4D:07:90:AD:FF:1D:0D:E7:1A:DD:D6:2E:FA:BA:34:CB:AA:1F:24:C6
            X509v3 Authority Key Identifier: 
                keyid:F4:A7:C0:CC:91:46:AF:64:F3:91:F2:27:F8:C8:B2:6F:8A:87:32:73
                DirName:/C=DE/ST=Hessen/O=privacyidea/CN=CA001
                serial:FB:C8:EB:AC:83:CD:12:07

            X509v3 Extended Key Usage: 
                TLS Web Server Authentication
    Signature Algorithm: sha256WithRSAEncryption
         93:41:34:6c:2a:29:f4:a7:4d:14:b9:32:80:e2:ea:45:f2:4d:
         8f:d4:3c:7b:f3:b9:b0:85:58:05:68:74:c4:9e:ac:e7:b1:72:
         fc:3c:d9:c2:4e:45:7a:fc:83:63:1b:bc:dd:96:0d:18:ab:26:
         d9:ad:1d:c7:b0:a7:15:98:26:79:10:25:0c:f2:6d:7a:c6:ed:
         80:b4:1e:0c:c2:d1:26:ba:a9:e1:14:61:d2:57:4a:99:ff:96:
         60:89:79:a2:cf:15:d6:d6:a7:a2:a3:cd:9d:26:56:7a:e6:32:
         d8:20:6b:b5:cd:24:38:74:7e:ef:bd:ac:dd:fc:b8:4f:2e:4b:
         6f:a0:f5:83:16:1d:86:c6:d0:dd:26:2c:09:55:74:9a:f8:89:
         87:66:7e:65:ce:aa:66:c0:b2:19:3e:65:23:6f:3f:1e:a3:05:
         00:7f:fc:eb:a4:ea:a6:54:e3:78:81:3f:39:49:18:65:34:ca:
         f0:c1:45:3b:3e:29:f1:91:a2:5e:3f:6a:f9:86:7a:cc:8e:7a:
         81:e5:08:51:7c:4b:1a:fa:d7:1c:d3:bd:7f:38:0c:7d:00:c0:
         a7:52:bf:73:1d:f4:7b:f5:6d:f0:d3:76:76:24:6a:09:fd:2a:
         be:db:fc:2b:29:dd:db:7e:40:10:7c:a0:1c:7b:b6:42:e6:e5:
         c7:48:a0:47
-----BEGIN CERTIFICATE-----
MIIEDzCCAvegAwIBAgIEEAAA1zANBgkqhkiG9w0BAQsFADBEMQswCQYDVQQGEwJE
RTEPMA0GA1UECAwGSGVzc2VuMRQwEgYDVQQKDAtwcml2YWN5aWRlYTEOMAwGA1UE
AwwFQ0EwMDEwHhcNMTkwNDA1MDg0MTM4WhcNMjAwNDA0MDg0MTM4WjA9MSUwIwYD
VQQDDBxzZWxmc2VydmljZSxDTj11c2VyLE89cmVhbG0xMRQwEgYJKoZIhvcNAQkB
FgVtZWluZTCCASIwDQYJKoZIhvcNAQEBBQADggEPADCCAQoCggEBAM881DMOEsTm
2s22VqEcJrsmHIpKc6hYirYes4uZ0h0HwpKJecBp2MjfKGGYHrP+riu9eKn3bkfc
o6AWjIUCwU6S/XJu8MgDKZu4AG7Ag5XINCA2nLPl5OZ2c6MarUCW4FNUAOx2eZrG
DX62vSnsg/PLiaTLbAC6DMV4D/9puJT0BHBDP9ie16f7Xc51jtrnxAexnd5viEu2
TZrP+bz6n80ybfY6Cw0jQnjsl0K/Dk1gVuHTAvIZy4RXkOVwoaKDNYbi2oaf+YrE
ebNSKNrLuzTK09qRSs+NdqKya5v5lv0JKtoRI03wy9aysQ4SbJoZZZiHyuTuJM5E
rJCPnRvFKp0CAwEAAaOCAQ4wggEKMAsGA1UdDwQEAwIFoDAJBgNVHRMEAjAAMBEG
CWCGSAGG+EIBAQQEAwIGQDAzBglghkgBhvhCAQ0EJhYkT3BlblNTTCBHZW5lcmF0
ZWQgU2VydmVyIENlcnRpZmljYXRlMB0GA1UdDgQWBBRNB5Ct/x0N5xrd1i76ujTL
qh8kxjB0BgNVHSMEbTBrgBT0p8DMkUavZPOR8if4yLJviocyc6FIpEYwRDELMAkG
A1UEBhMCREUxDzANBgNVBAgMBkhlc3NlbjEUMBIGA1UECgwLcHJpdmFjeWlkZWEx
DjAMBgNVBAMMBUNBMDAxggkA+8jrrIPNEgcwEwYDVR0lBAwwCgYIKwYBBQUHAwEw
DQYJKoZIhvcNAQELBQADggEBAJNBNGwqKfSnTRS5MoDi6kXyTY/UPHvzubCFWAVo
dMSerOexcvw82cJORXr8g2MbvN2WDRirJtmtHcewpxWYJnkQJQzybXrG7YC0HgzC
0Sa6qeEUYdJXSpn/lmCJeaLPFdbWp6KjzZ0mVnrmMtgga7XNJDh0fu+9rN38uE8u
S2+g9YMWHYbG0N0mLAlVdJr4iYdmfmXOqmbAshk+ZSNvPx6jBQB//Ouk6qZU43iB
PzlJGGU0yvDBRTs+KfGRol4/avmGesyOeoHlCFF8Sxr61xzTvX84DH0AwKdSv3Md
9Hv1bfDTdnYkagn9Kr7b/Csp3dt+QBB8oBx7tkLm5cdIoEc=
-----END CERTIFICATE-----
