Certificate:
    Data:
        Version: 3 (0x2)
        Serial Number: 268435686 (0x100000e6)
    Signature Algorithm: sha256WithRSAEncryption
        Issuer: C=DE, ST=Hessen, O=privacyidea, CN=CA001
        Validity
            Not Before: Mar 13 16:35:44 2019 GMT
            Not After : Apr  1 16:35:44 2021 GMT
        Subject: CN=Steve Test/emailAddress=steve@openssl.org
        Subject Public Key Info:
            Public Key Algorithm: rsaEncryption
                Public-Key: (2048 bit)
                Modulus:
                    00:d2:81:89:20:51:48:0f:73:f4:11:32:24:d5:1f:
                    1c:fd:5c:f5:b6:e6:c5:f0:52:81:dc:d2:af:66:4a:
                    7c:93:31:61:5c:af:d1:6d:06:70:03:60:7c:72:0c:
                    88:dd:49:cd:9e:02:6c:d2:5a:d7:53:0f:f3:da:be:
                    69:64:b5:0f:0c:00:e3:b3:50:47:a3:b3:9b:ba:13:
                    50:d6:58:5a:4b:ab:39:e0:11:ca:0a:27:67:03:78:
                    22:66:6d:92:1e:1b:5c:49:ae:e6:6b:d1:8e:3b:9d:
                    06:d3:c6:ac:4d:53:43:10:ab:e8:96:c1:87:82:97:
                    99:8f:20:d3:99:12:37:31:84:e1:8a:ff:29:03:5f:
                    22:90:3e:7f:9b:e0:20:c1:ad:dc:ae:4c:39:1a:31:
                    96:17:02:8c:b2:d9:b4:0d:20:12:9b:7d:86:54:fd:
                    33:fd:c1:2a:62:46:f8:60:96:cf:6e:01:6f:22:df:
                    13:47:e7:97:ec:05:72:23:a3:62:f8:fa:ef:ac:9c:
                    72:f0:37:cb:2f:37:cf:90:a8:27:51:86:c6:d7:78:
                    08:8f:7e:25:a2:15:70:a2:fb:1c:b6:15:5e:a0:97:
                    8b:81:4c:09:28:8a:27:3b:94:bc:71:db:5b:71:37:
                    9a:2b:16:e0:6f:b5:c9:f5:4b:4f:20:ba:65:cf:af:
                    ad:ad
                Exponent: 65537 (0x10001)
        X509v3 extensions:
            X509v3 Key Usage: 
                Digital Signature, Key Encipherment
            X509v3 Basic Constraints: 
                CA:FALSE
            Netscape Cert Type: 
                SSL Server
            Netscape Comment: 
                OpenSSL Generated Server Certificate
            X509v3 Subject Key Identifier: 
                E5:25:6D:3E:AF:0D:DD:3F:4C:F2:45:19:39:D5:14:DB:7E:9C:C0:AD
            X509v3 Authority Key Identifier: 
                keyid:F4:A7:C0:CC:91:46:AF:64:F3:91:F2:27:F8:C8:B2:6F:8A:87:32:73
                DirName:/C=DE/ST=Hessen/O=privacyidea/CN=CA001
                serial:FB:C8:EB:AC:83:CD:12:07

            X509v3 Extended Key Usage: 
                TLS Web Server Authentication
    Signature Algorithm: sha256WithRSAEncryption
         2b:f3:ea:b0:9c:38:12:74:ad:76:c3:e8:fd:98:f4:6e:3b:7a:
         33:95:2f:ae:04:bc:e4:e6:66:44:3b:30:9e:a0:7a:83:e1:3f:
         c1:5a:69:19:a8:a8:11:dd:4f:19:6c:e6:32:56:a3:eb:47:8f:
         39:90:22:81:15:cc:d2:5d:bf:99:39:b1:2d:67:d2:a9:7e:80:
         4f:4b:7c:09:9e:30:e9:ef:3d:5d:0d:5a:15:51:8e:45:6d:7e:
         f0:79:d8:07:c7:db:5f:a5:b2:32:41:50:25:07:12:d4:0e:46:
         d3:81:4f:62:55:8f:be:79:d0:52:b5:ee:c6:ed:85:dc:f2:d9:
         33:19:bb:72:af:b0:00:19:68:00:9b:00:ad:a2:ff:43:b6:ec:
         1d:75:fc:4c:e8:4e:f1:38:54:a0:29:eb:64:64:7a:f5:33:fc:
         b7:e5:e8:da:1f:ab:bd:39:89:10:17:46:5d:dd:3b:7f:03:da:
         99:c8:33:1b:ab:ae:82:66:15:23:b1:29:6e:3d:8b:65:3b:5e:
         57:50:62:d3:fb:b9:6b:99:73:d3:9c:4a:05:06:48:da:7b:ad:
         20:42:79:13:94:79:05:da:c0:08:4a:dd:fb:2e:cc:5c:d9:02:
         f8:70:df:bb:b7:70:9b:b3:5c:14:88:df:30:f5:6f:bd:a7:e3:
         ea:4c:c9:43
-----BEGIN CERTIFICATE-----
MIIECTCCAvGgAwIBAgIEEAAA5jANBgkqhkiG9w0BAQsFADBEMQswCQYDVQQGEwJE
RTEPMA0GA1UECAwGSGVzc2VuMRQwEgYDVQQKDAtwcml2YWN5aWRlYTEOMAwGA1UE
AwwFQ0EwMDEwHhcNMTkwMzEzMTYzNTQ0WhcNMjEwNDAxMTYzNTQ0WjA3MRMwEQYD
VQQDDApTdGV2ZSBUZXN0MSAwHgYJKoZIhvcNAQkBFhFzdGV2ZUBvcGVuc3NsLm9y
ZzCCASIwDQYJKoZIhvcNAQEBBQADggEPADCCAQoCggEBANKBiSBRSA9z9BEyJNUf
HP1c9bbmxfBSgdzSr2ZKfJMxYVyv0W0GcANgfHIMiN1JzZ4CbNJa11MP89q+aWS1
DwwA47NQR6Ozm7oTUNZYWkurOeARygonZwN4ImZtkh4bXEmu5mvRjjudBtPGrE1T
QxCr6JbBh4KXmY8g05kSNzGE4Yr/KQNfIpA+f5vgIMGt3K5MORoxlhcCjLLZtA0g
Ept9hlT9M/3BKmJG+GCWz24BbyLfE0fnl+wFciOjYvj676yccvA3yy83z5CoJ1GG
xtd4CI9+JaIVcKL7HLYVXqCXi4FMCSiKJzuUvHHbW3E3misW4G+1yfVLTyC6Zc+v
ra0CAwEAAaOCAQ4wggEKMAsGA1UdDwQEAwIFoDAJBgNVHRMEAjAAMBEGCWCGSAGG
+EIBAQQEAwIGQDAzBglghkgBhvhCAQ0EJhYkT3BlblNTTCBHZW5lcmF0ZWQgU2Vy
dmVyIENlcnRpZmljYXRlMB0GA1UdDgQWBBTlJW0+rw3dP0zyRRk51RTbfpzArTB0
BgNVHSMEbTBrgBT0p8DMkUavZPOR8if4yLJviocyc6FIpEYwRDELMAkGA1UEBhMC
REUxDzANBgNVBAgMBkhlc3NlbjEUMBIGA1UECgwLcHJpdmFjeWlkZWExDjAMBgNV
BAMMBUNBMDAxggkA+8jrrIPNEgcwEwYDVR0lBAwwCgYIKwYBBQUHAwEwDQYJKoZI
hvcNAQELBQADggEBACvz6rCcOBJ0rXbD6P2Y9G47ejOVL64EvOTmZkQ7MJ6geoPh
P8FaaRmoqBHdTxls5jJWo+tHjzmQIoEVzNJdv5k5sS1n0ql+gE9LfAmeMOnvPV0N
WhVRjkVtfvB52AfH21+lsjJBUCUHEtQORtOBT2JVj7550FK17sbthdzy2TMZu3Kv
sAAZaACbAK2i/0O27B11/EzoTvE4VKAp62RkevUz/Lfl6Nofq705iRAXRl3dO38D
2pnIMxurroJmFSOxKW49i2U7XldQYtP7uWuZc9OcSgUGSNp7rSBCeROUeQXawAhK
3fsuzFzZAvhw37u3cJuzXBSI3zD1b72n4+pMyUM=
-----END CERTIFICATE-----
