Certificate:
    Data:
        Version: 3 (0x2)
        Serial Number: 268435675 (0x100000db)
    Signature Algorithm: sha256WithRSAEncryption
        Issuer: C=DE, ST=Hessen, O=privacyidea, CN=CA001
        Validity
            Not Before: Mar 20 08:51:22 2019 GMT
            Not After : Mar 19 08:51:22 2020 GMT
        Subject: CN=Steve Test/emailAddress=steve@openssl.org
        Subject Public Key Info:
            Public Key Algorithm: rsaEncryption
                Public-Key: (2048 bit)
                Modulus:
                    00:d2:81:89:20:51:48:0f:73:f4:11:32:24:d5:1f:
                    1c:fd:5c:f5:b6:e6:c5:f0:52:81:dc:d2:af:66:4a:
                    7c:93:31:61:5c:af:d1:6d:06:70:03:60:7c:72:0c:
                    88:dd:49:cd:9e:02:6c:d2:5a:d7:53:0f:f3:da:be:
                    69:64:b5:0f:0c:00:e3:b3:50:47:a3:b3:9b:ba:13:
                    50:d6:58:5a:4b:ab:39:e0:11:ca:0a:27:67:03:78:
                    22:66:6d:92:1e:1b:5c:49:ae:e6:6b:d1:8e:3b:9d:
                    06:d3:c6:ac:4d:53:43:10:ab:e8:96:c1:87:82:97:
                    99:8f:20:d3:99:12:37:31:84:e1:8a:ff:29:03:5f:
                    22:90:3e:7f:9b:e0:20:c1:ad:dc:ae:4c:39:1a:31:
                    96:17:02:8c:b2:d9:b4:0d:20:12:9b:7d:86:54:fd:
                    33:fd:c1:2a:62:46:f8:60:96:cf:6e:01:6f:22:df:
                    13:47:e7:97:ec:05:72:23:a3:62:f8:fa:ef:ac:9c:
                    72:f0:37:cb:2f:37:cf:90:a8:27:51:86:c6:d7:78:
                    08:8f:7e:25:a2:15:70:a2:fb:1c:b6:15:5e:a0:97:
                    8b:81:4c:09:28:8a:27:3b:94:bc:71:db:5b:71:37:
                    9a:2b:16:e0:6f:b5:c9:f5:4b:4f:20:ba:65:cf:af:
                    ad:ad
                Exponent: 65537 (0x10001)
        X509v3 extensions:
            X509v3 Key Usage: 
                Digital Signature, Key Encipherment
            X509v3 Basic Constraints: 
                CA:FALSE
            Netscape Cert Type: 
                SSL Server
            Netscape Comment: 
                OpenSSL Generated Server Certificate
            X509v3 Subject Key Identifier: 
                E5:25:6D:3E:AF:0D:DD:3F:4C:F2:45:19:39:D5:14:DB:7E:9C:C0:AD
            X509v3 Authority Key Identifier: 
                keyid:F4:A7:C0:CC:91:46:AF:64:F3:91:F2:27:F8:C8:B2:6F:8A:87:32:73
                DirName:/C=DE/ST=Hessen/O=privacyidea/CN=CA001
                serial:FB:C8:EB:AC:83:CD:12:07

            X509v3 Extended Key Usage: 
                TLS Web Server Authentication
    Signature Algorithm: sha256WithRSAEncryption
         63:1d:28:c7:a3:8e:20:6c:14:42:b5:49:dc:b1:1d:21:d0:b0:
         9d:4a:99:c7:5a:59:22:e6:55:c1:cd:ce:66:7e:45:56:86:00:
         ae:51:4b:a8:4b:d8:42:27:25:3d:af:9b:89:6a:43:7b:42:d1:
         b2:dd:dd:9a:4b:3e:a5:7b:d9:a0:5b:4a:bc:46:45:49:52:57:
         93:f5:de:74:e7:8e:a9:2e:41:6a:29:47:5d:36:cc:82:9b:fe:
         48:37:ab:38:8b:f7:95:86:1b:b8:d5:41:b2:0a:03:ad:25:5c:
         2a:ca:b2:67:ca:aa:8b:4e:0e:a6:37:a0:a3:0d:55:da:ea:e6:
         6b:16:45:b0:55:a8:a0:35:4a:76:f4:55:0e:6d:50:97:ff:05:
         9d:0c:4e:ac:f2:7f:01:96:54:88:47:ac:8b:11:d4:27:48:43:
         80:f9:dc:6c:65:f6:6e:ff:bb:4d:1b:c0:f2:ff:51:31:dd:8b:
         15:93:1d:9c:12:a8:49:ae:66:40:44:b4:c0:f4:e4:a2:33:8a:
         20:67:e0:bc:fe:cf:37:09:ed:dd:64:52:b2:42:50:9d:c3:5d:
         80:56:8b:0d:92:cc:7b:a4:75:cf:76:88:01:eb:2d:a4:d9:c7:
         92:0c:06:bd:0a:52:a5:67:d4:ca:8e:15:99:1f:b3:cb:54:ba:
         11:86:e1:3f
-----BEGIN CERTIFICATE-----
MIIECTCCAvGgAwIBAgIEEAAA2zANBgkqhkiG9w0BAQsFADBEMQswCQYDVQQGEwJE
RTEPMA0GA1UECAwGSGVzc2VuMRQwEgYDVQQKDAtwcml2YWN5aWRlYTEOMAwGA1UE
AwwFQ0EwMDEwHhcNMTkwMzIwMDg1MTIyWhcNMjAwMzE5MDg1MTIyWjA3MRMwEQYD
VQQDDApTdGV2ZSBUZXN0MSAwHgYJKoZIhvcNAQkBFhFzdGV2ZUBvcGVuc3NsLm9y
ZzCCASIwDQYJKoZIhvcNAQEBBQADggEPADCCAQoCggEBANKBiSBRSA9z9BEyJNUf
HP1c9bbmxfBSgdzSr2ZKfJMxYVyv0W0GcANgfHIMiN1JzZ4CbNJa11MP89q+aWS1
DwwA47NQR6Ozm7oTUNZYWkurOeARygonZwN4ImZtkh4bXEmu5mvRjjudBtPGrE1T
QxCr6JbBh4KXmY8g05kSNzGE4Yr/KQNfIpA+f5vgIMGt3K5MORoxlhcCjLLZtA0g
Ept9hlT9M/3BKmJG+GCWz24BbyLfE0fnl+wFciOjYvj676yccvA3yy83z5CoJ1GG
xtd4CI9+JaIVcKL7HLYVXqCXi4FMCSiKJzuUvHHbW3E3misW4G+1yfVLTyC6Zc+v
ra0CAwEAAaOCAQ4wggEKMAsGA1UdDwQEAwIFoDAJBgNVHRMEAjAAMBEGCWCGSAGG
+EIBAQQEAwIGQDAzBglghkgBhvhCAQ0EJhYkT3BlblNTTCBHZW5lcmF0ZWQgU2Vy
dmVyIENlcnRpZmljYXRlMB0GA1UdDgQWBBTlJW0+rw3dP0zyRRk51RTbfpzArTB0
BgNVHSMEbTBrgBT0p8DMkUavZPOR8if4yLJviocyc6FIpEYwRDELMAkGA1UEBhMC
REUxDzANBgNVBAgMBkhlc3NlbjEUMBIGA1UECgwLcHJpdmFjeWlkZWExDjAMBgNV
BAMMBUNBMDAxggkA+8jrrIPNEgcwEwYDVR0lBAwwCgYIKwYBBQUHAwEwDQYJKoZI
hvcNAQELBQADggEBAGMdKMejjiBsFEK1SdyxHSHQsJ1KmcdaWSLmVcHNzmZ+RVaG
AK5RS6hL2EInJT2vm4lqQ3tC0bLd3ZpLPqV72aBbSrxGRUlSV5P13nTnjqkuQWop
R102zIKb/kg3qziL95WGG7jVQbIKA60lXCrKsmfKqotODqY3oKMNVdrq5msWRbBV
qKA1Snb0VQ5tUJf/BZ0MTqzyfwGWVIhHrIsR1CdIQ4D53Gxl9m7/u00bwPL/UTHd
ixWTHZwSqEmuZkBEtMD05KIziiBn4Lz+zzcJ7d1kUrJCUJ3DXYBWiw2SzHukdc92
iAHrLaTZx5IMBr0KUqVn1MqOFZkfs8tUuhGG4T8=
-----END CERTIFICATE-----
