Certificate:
    Data:
        Version: 3 (0x2)
        Serial Number: 268435692 (0x100000ec)
    Signature Algorithm: sha256WithRSAEncryption
        Issuer: C=DE, ST=Hessen, O=privacyidea, CN=CA001
        Validity
            Not Before: Feb  8 22:02:35 2019 GMT
            Not After : Feb 27 22:02:35 2021 GMT
        Subject: CN=Steve Test/emailAddress=steve@openssl.org
        Subject Public Key Info:
            Public Key Algorithm: rsaEncryption
                Public-Key: (2048 bit)
                Modulus:
                    00:d2:81:89:20:51:48:0f:73:f4:11:32:24:d5:1f:
                    1c:fd:5c:f5:b6:e6:c5:f0:52:81:dc:d2:af:66:4a:
                    7c:93:31:61:5c:af:d1:6d:06:70:03:60:7c:72:0c:
                    88:dd:49:cd:9e:02:6c:d2:5a:d7:53:0f:f3:da:be:
                    69:64:b5:0f:0c:00:e3:b3:50:47:a3:b3:9b:ba:13:
                    50:d6:58:5a:4b:ab:39:e0:11:ca:0a:27:67:03:78:
                    22:66:6d:92:1e:1b:5c:49:ae:e6:6b:d1:8e:3b:9d:
                    06:d3:c6:ac:4d:53:43:10:ab:e8:96:c1:87:82:97:
                    99:8f:20:d3:99:12:37:31:84:e1:8a:ff:29:03:5f:
                    22:90:3e:7f:9b:e0:20:c1:ad:dc:ae:4c:39:1a:31:
                    96:17:02:8c:b2:d9:b4:0d:20:12:9b:7d:86:54:fd:
                    33:fd:c1:2a:62:46:f8:60:96:cf:6e:01:6f:22:df:
                    13:47:e7:97:ec:05:72:23:a3:62:f8:fa:ef:ac:9c:
                    72:f0:37:cb:2f:37:cf:90:a8:27:51:86:c6:d7:78:
                    08:8f:7e:25:a2:15:70:a2:fb:1c:b6:15:5e:a0:97:
                    8b:81:4c:09:28:8a:27:3b:94:bc:71:db:5b:71:37:
                    9a:2b:16:e0:6f:b5:c9:f5:4b:4f:20:ba:65:cf:af:
                    ad:ad
                Exponent: 65537 (0x10001)
        X509v3 extensions:
            X509v3 Key Usage: 
                Digital Signature, Key Encipherment
            X509v3 Basic Constraints: 
                CA:FALSE
            Netscape Cert Type: 
                SSL Server
            Netscape Comment: 
                OpenSSL Generated Server Certificate
            X509v3 Subject Key Identifier: 
                E5:25:6D:3E:AF:0D:DD:3F:4C:F2:45:19:39:D5:14:DB:7E:9C:C0:AD
            X509v3 Authority Key Identifier: 
                keyid:F4:A7:C0:CC:91:46:AF:64:F3:91:F2:27:F8:C8:B2:6F:8A:87:32:73
                DirName:/C=DE/ST=Hessen/O=privacyidea/CN=CA001
                serial:FB:C8:EB:AC:83:CD:12:07

            X509v3 Extended Key Usage: 
                TLS Web Server Authentication
    Signature Algorithm: sha256WithRSAEncryption
         b5:34:9a:42:c5:37:f9:d2:83:ab:d0:bc:18:3e:80:1d:c0:56:
         eb:9e:3c:0f:fe:7c:4e:33:ab:df:03:42:03:39:ae:66:44:14:
         87:b7:11:d5:cb:05:03:64:58:67:1f:29:0c:e7:02:8d:e2:b8:
         58:1e:1a:01:a4:c0:bf:60:5d:35:41:cf:d3:9f:07:76:f6:96:
         47:90:47:7f:14:14:db:7c:06:4c:19:6c:1d:5e:a5:ae:cc:4b:
         94:2e:b0:1b:c8:e4:52:8b:dc:8d:32:62:8f:49:f7:91:75:0d:
         53:1d:05:cd:b3:f9:5c:3d:74:7c:84:da:52:de:32:2c:bc:61:
         23:35:e3:b9:9e:f7:5b:a1:58:29:71:f6:3e:1d:d4:a5:73:f6:
         9e:30:17:2c:86:4b:f6:34:5e:a0:33:02:3f:7c:48:b3:d9:ce:
         4e:6f:6e:8a:fa:b3:b1:c7:b6:71:9d:07:74:a9:70:70:2e:fe:
         9d:8b:59:d1:ab:c5:ef:7c:9c:92:71:74:9a:4a:36:c6:91:91:
         7f:95:97:0c:2a:01:c9:43:1f:ba:cc:9c:82:2b:a7:2e:7c:cd:
         0f:a3:80:96:bb:fe:b4:ee:aa:bf:3e:55:c3:4e:a5:ec:3f:72:
         29:68:0f:44:60:7f:ef:9a:76:a9:5b:ee:ba:77:40:3f:58:4c:
         3b:3e:c9:c8
-----BEGIN CERTIFICATE-----
MIIECTCCAvGgAwIBAgIEEAAA7DANBgkqhkiG9w0BAQsFADBEMQswCQYDVQQGEwJE
RTEPMA0GA1UECAwGSGVzc2VuMRQwEgYDVQQKDAtwcml2YWN5aWRlYTEOMAwGA1UE
AwwFQ0EwMDEwHhcNMTkwMjA4MjIwMjM1WhcNMjEwMjI3MjIwMjM1WjA3MRMwEQYD
VQQDDApTdGV2ZSBUZXN0MSAwHgYJKoZIhvcNAQkBFhFzdGV2ZUBvcGVuc3NsLm9y
ZzCCASIwDQYJKoZIhvcNAQEBBQADggEPADCCAQoCggEBANKBiSBRSA9z9BEyJNUf
HP1c9bbmxfBSgdzSr2ZKfJMxYVyv0W0GcANgfHIMiN1JzZ4CbNJa11MP89q+aWS1
DwwA47NQR6Ozm7oTUNZYWkurOeARygonZwN4ImZtkh4bXEmu5mvRjjudBtPGrE1T
QxCr6JbBh4KXmY8g05kSNzGE4Yr/KQNfIpA+f5vgIMGt3K5MORoxlhcCjLLZtA0g
Ept9hlT9M/3BKmJG+GCWz24BbyLfE0fnl+wFciOjYvj676yccvA3yy83z5CoJ1GG
xtd4CI9+JaIVcKL7HLYVXqCXi4FMCSiKJzuUvHHbW3E3misW4G+1yfVLTyC6Zc+v
ra0CAwEAAaOCAQ4wggEKMAsGA1UdDwQEAwIFoDAJBgNVHRMEAjAAMBEGCWCGSAGG
+EIBAQQEAwIGQDAzBglghkgBhvhCAQ0EJhYkT3BlblNTTCBHZW5lcmF0ZWQgU2Vy
dmVyIENlcnRpZmljYXRlMB0GA1UdDgQWBBTlJW0+rw3dP0zyRRk51RTbfpzArTB0
BgNVHSMEbTBrgBT0p8DMkUavZPOR8if4yLJviocyc6FIpEYwRDELMAkGA1UEBhMC
REUxDzANBgNVBAgMBkhlc3NlbjEUMBIGA1UECgwLcHJpdmFjeWlkZWExDjAMBgNV
BAMMBUNBMDAxggkA+8jrrIPNEgcwEwYDVR0lBAwwCgYIKwYBBQUHAwEwDQYJKoZI
hvcNAQELBQADggEBALU0mkLFN/nSg6vQvBg+gB3AVuuePA/+fE4zq98DQgM5rmZE
FIe3EdXLBQNkWGcfKQznAo3iuFgeGgGkwL9gXTVBz9OfB3b2lkeQR38UFNt8BkwZ
bB1epa7MS5QusBvI5FKL3I0yYo9J95F1DVMdBc2z+Vw9dHyE2lLeMiy8YSM147me
91uhWClx9j4d1KVz9p4wFyyGS/Y0XqAzAj98SLPZzk5vbor6s7HHtnGdB3SpcHAu
/p2LWdGrxe98nJJxdJpKNsaRkX+VlwwqAclDH7rMnIIrpy58zQ+jgJa7/rTuqr8+
VcNOpew/ciloD0Rgf++adqlb7rp3QD9YTDs+ycg=
-----END CERTIFICATE-----
