Certificate:
    Data:
        Version: 3 (0x2)
        Serial Number: 268435672 (0x100000d8)
    Signature Algorithm: sha256WithRSAEncryption
        Issuer: C=DE, ST=Hessen, O=privacyidea, CN=CA001
        Validity
            Not Before: Mar 20 08:49:25 2019 GMT
            Not After : Mar 19 08:49:25 2020 GMT
        Subject: C=DE, ST=Hessen, O=privacyidea, CN=requester.localdomain
        Subject Public Key Info:
            Public Key Algorithm: rsaEncryption
                Public-Key: (2048 bit)
                Modulus:
                    00:cd:be:14:4f:fa:ce:01:3f:42:22:1b:1d:9c:af:
                    dd:92:d2:7f:db:6c:b7:3e:39:43:43:6b:13:03:f1:
                    05:f4:07:74:bc:76:69:28:0b:af:19:8e:d7:fc:e3:
                    cd:c6:58:f2:ca:7f:08:6d:53:fc:07:02:44:24:c6:
                    b4:34:4c:8c:04:fe:33:0e:40:e2:20:ba:02:73:5a:
                    f7:f5:4f:63:6e:cc:c6:b6:df:54:1d:37:39:7d:51:
                    36:26:5f:bd:dc:3f:a8:8b:6b:a2:ae:b6:9d:d6:21:
                    e7:df:41:b8:7a:28:2a:68:48:ca:a8:2d:ed:e1:e9:
                    46:5e:5a:72:6d:b4:84:38:87:91:fd:94:11:0b:28:
                    84:c6:c2:2f:2a:fb:01:f9:36:7a:09:75:d1:33:88:
                    3c:73:41:5b:c8:bf:94:89:70:a1:f0:c0:b9:2e:50:
                    53:1e:b1:17:64:69:f4:2d:81:e0:a9:0d:0e:32:e9:
                    ba:55:8a:85:f1:1b:6f:49:79:b4:7f:88:c3:0d:3e:
                    54:88:9b:3d:1f:38:8c:04:f3:ee:6a:63:2b:f5:c6:
                    db:b4:83:aa:c4:78:41:3a:7d:4b:e1:c8:3e:71:ca:
                    1b:61:59:ea:c6:c4:ca:32:5e:c9:e9:bf:12:29:e6:
                    c6:c3:63:fe:a0:55:da:7a:f1:60:98:4d:26:ed:fa:
                    70:2d
                Exponent: 65537 (0x10001)
        X509v3 extensions:
            X509v3 Key Usage: 
                Digital Signature, Key Encipherment
            X509v3 Basic Constraints: 
                CA:FALSE
            Netscape Cert Type: 
                SSL Server
            Netscape Comment: 
                OpenSSL Generated Server Certificate
            X509v3 Subject Key Identifier: 
                53:3F:ED:5D:09:07:B3:65:7B:AB:45:C9:24:5B:09:77:80:0A:96:ED
            X509v3 Authority Key Identifier: 
                keyid:F4:A7:C0:CC:91:46:AF:64:F3:91:F2:27:F8:C8:B2:6F:8A:87:32:73
                DirName:/C=DE/ST=Hessen/O=privacyidea/CN=CA001
                serial:FB:C8:EB:AC:83:CD:12:07

            X509v3 Extended Key Usage: 
                TLS Web Server Authentication
    Signature Algorithm: sha256WithRSAEncryption
         04:2e:bd:ce:3d:87:1a:3b:83:3a:02:78:49:72:7a:46:c9:ee:
         ce:4b:bc:fc:4d:99:42:60:cd:65:49:c7:b9:c3:9e:72:ad:35:
         0e:97:65:41:89:d4:5d:0a:fb:63:dd:7d:78:50:c8:64:f1:2e:
         7e:b1:85:3d:29:78:2c:f1:53:d9:1e:3a:5b:b1:79:c1:21:4e:
         5b:63:88:b5:d5:52:ac:c8:97:16:13:e6:f2:32:fd:e8:db:9d:
         9d:b2:af:30:9f:e3:d3:7b:dc:c7:c6:b7:d1:0c:48:59:0b:23:
         85:60:b3:ef:5e:f3:6b:fc:5c:11:8c:73:c0:39:10:6a:e1:26:
         bf:6a:8e:81:2e:ba:bd:f2:8c:96:65:a6:2c:c8:5c:b5:0f:9a:
         27:81:81:0a:33:b9:df:d6:48:f6:db:8f:44:ae:ab:e0:07:2e:
         eb:48:d4:4f:82:7a:c2:10:ab:9f:b7:3c:de:c4:2f:d4:fb:0f:
         1e:1a:16:83:d1:c0:64:6a:b4:6d:56:e9:f2:9e:fe:56:dc:76:
         22:72:d5:a1:00:50:03:94:11:c5:4e:8a:4a:ad:c6:1b:9c:07:
         e1:5c:28:4b:8d:0c:ee:fc:95:00:1f:4f:9b:fb:00:25:79:6c:
         d1:8a:03:4f:db:56:3b:f8:13:09:01:95:13:92:64:76:8c:e0:
         d7:4e:66:23
-----BEGIN CERTIFICATE-----
MIIEJjCCAw6gAwIBAgIEEAAA2DANBgkqhkiG9w0BAQsFADBEMQswCQYDVQQGEwJE
RTEPMA0GA1UECAwGSGVzc2VuMRQwEgYDVQQKDAtwcml2YWN5aWRlYTEOMAwGA1UE
AwwFQ0EwMDEwHhcNMTkwMzIwMDg0OTI1WhcNMjAwMzE5MDg0OTI1WjBUMQswCQYD
VQQGEwJERTEPMA0GA1UECAwGSGVzc2VuMRQwEgYDVQQKDAtwcml2YWN5aWRlYTEe
MBwGA1UEAwwVcmVxdWVzdGVyLmxvY2FsZG9tYWluMIIBIjANBgkqhkiG9w0BAQEF
AAOCAQ8AMIIBCgKCAQEAzb4UT/rOAT9CIhsdnK/dktJ/22y3PjlDQ2sTA/EF9Ad0
vHZpKAuvGY7X/OPNxljyyn8IbVP8BwJEJMa0NEyMBP4zDkDiILoCc1r39U9jbszG
tt9UHTc5fVE2Jl+93D+oi2uirrad1iHn30G4eigqaEjKqC3t4elGXlpybbSEOIeR
/ZQRCyiExsIvKvsB+TZ6CXXRM4g8c0FbyL+UiXCh8MC5LlBTHrEXZGn0LYHgqQ0O
Mum6VYqF8RtvSXm0f4jDDT5UiJs9HziMBPPuamMr9cbbtIOqxHhBOn1L4cg+ccob
YVnqxsTKMl7J6b8SKebGw2P+oFXaevFgmE0m7fpwLQIDAQABo4IBDjCCAQowCwYD
VR0PBAQDAgWgMAkGA1UdEwQCMAAwEQYJYIZIAYb4QgEBBAQDAgZAMDMGCWCGSAGG
+EIBDQQmFiRPcGVuU1NMIEdlbmVyYXRlZCBTZXJ2ZXIgQ2VydGlmaWNhdGUwHQYD
VR0OBBYEFFM/7V0JB7Nle6tFySRbCXeACpbtMHQGA1UdIwRtMGuAFPSnwMyRRq9k
85HyJ/jIsm+KhzJzoUikRjBEMQswCQYDVQQGEwJERTEPMA0GA1UECAwGSGVzc2Vu
MRQwEgYDVQQKDAtwcml2YWN5aWRlYTEOMAwGA1UEAwwFQ0EwMDGCCQD7yOusg80S
BzATBgNVHSUEDDAKBggrBgEFBQcDATANBgkqhkiG9w0BAQsFAAOCAQEABC69zj2H
GjuDOgJ4SXJ6Rsnuzku8/E2ZQmDNZUnHucOecq01DpdlQYnUXQr7Y919eFDIZPEu
frGFPSl4LPFT2R46W7F5wSFOW2OItdVSrMiXFhPm8jL96NudnbKvMJ/j03vcx8a3
0QxIWQsjhWCz717za/xcEYxzwDkQauEmv2qOgS66vfKMlmWmLMhctQ+aJ4GBCjO5
39ZI9tuPRK6r4Acu60jUT4J6whCrn7c83sQv1PsPHhoWg9HAZGq0bVbp8p7+Vtx2
InLVoQBQA5QRxU6KSq3GG5wH4VwoS40M7vyVAB9Pm/sAJXls0YoDT9tWO/gTCQGV
E5Jkdozg105mIw==
-----END CERTIFICATE-----
