Certificate:
    Data:
        Version: 3 (0x2)
        Serial Number: 268435669 (0x100000d5)
    Signature Algorithm: sha256WithRSAEncryption
        Issuer: C=DE, ST=Hessen, O=privacyidea, CN=CA001
        Validity
            Not Before: Apr  5 08:40:11 2019 GMT
            Not After : Apr  4 08:40:11 2020 GMT
        Subject: C=DE, ST=Hessen, O=privacyidea, CN=requester.localdomain
        Subject Public Key Info:
            Public Key Algorithm: rsaEncryption
                Public-Key: (2048 bit)
                Modulus:
                    00:cd:be:14:4f:fa:ce:01:3f:42:22:1b:1d:9c:af:
                    dd:92:d2:7f:db:6c:b7:3e:39:43:43:6b:13:03:f1:
                    05:f4:07:74:bc:76:69:28:0b:af:19:8e:d7:fc:e3:
                    cd:c6:58:f2:ca:7f:08:6d:53:fc:07:02:44:24:c6:
                    b4:34:4c:8c:04:fe:33:0e:40:e2:20:ba:02:73:5a:
                    f7:f5:4f:63:6e:cc:c6:b6:df:54:1d:37:39:7d:51:
                    36:26:5f:bd:dc:3f:a8:8b:6b:a2:ae:b6:9d:d6:21:
                    e7:df:41:b8:7a:28:2a:68:48:ca:a8:2d:ed:e1:e9:
                    46:5e:5a:72:6d:b4:84:38:87:91:fd:94:11:0b:28:
                    84:c6:c2:2f:2a:fb:01:f9:36:7a:09:75:d1:33:88:
                    3c:73:41:5b:c8:bf:94:89:70:a1:f0:c0:b9:2e:50:
                    53:1e:b1:17:64:69:f4:2d:81:e0:a9:0d:0e:32:e9:
                    ba:55:8a:85:f1:1b:6f:49:79:b4:7f:88:c3:0d:3e:
                    54:88:9b:3d:1f:38:8c:04:f3:ee:6a:63:2b:f5:c6:
                    db:b4:83:aa:c4:78:41:3a:7d:4b:e1:c8:3e:71:ca:
                    1b:61:59:ea:c6:c4:ca:32:5e:c9:e9:bf:12:29:e6:
                    c6:c3:63:fe:a0:55:da:7a:f1:60:98:4d:26:ed:fa:
                    70:2d
                Exponent: 65537 (0x10001)
        X509v3 extensions:
            X509v3 Key Usage: 
                Digital Signature, Key Encipherment
            X509v3 Basic Constraints: 
                CA:FALSE
            Netscape Cert Type: 
                SSL Server
            Netscape Comment: 
                OpenSSL Generated Server Certificate
            X509v3 Subject Key Identifier: 
                53:3F:ED:5D:09:07:B3:65:7B:AB:45:C9:24:5B:09:77:80:0A:96:ED
            X509v3 Authority Key Identifier: 
                keyid:F4:A7:C0:CC:91:46:AF:64:F3:91:F2:27:F8:C8:B2:6F:8A:87:32:73
                DirName:/C=DE/ST=Hessen/O=privacyidea/CN=CA001
                serial:FB:C8:EB:AC:83:CD:12:07

            X509v3 Extended Key Usage: 
                TLS Web Server Authentication
    Signature Algorithm: sha256WithRSAEncryption
         8c:c8:68:8e:52:c9:8a:c0:d5:d3:c3:a1:8d:b7:e3:6d:d1:a9:
         a0:8b:54:0b:9a:36:8b:b6:4d:b0:ca:23:09:60:13:43:67:34:
         41:18:53:2e:e5:eb:e3:9b:c6:6d:e9:84:7e:35:ed:3c:1f:31:
         ea:68:fb:d3:23:c7:10:f1:16:75:cc:e2:cb:40:4e:7e:1e:a4:
         a9:70:5a:64:1a:b7:54:83:4b:5e:44:f3:e7:10:a7:56:30:7d:
         40:be:64:c2:0e:cc:73:f9:98:86:ed:6e:08:74:b1:18:53:95:
         d3:10:f6:f1:75:59:a1:b0:df:d6:bc:84:bc:02:5c:20:6b:49:
         f0:3c:f2:8b:66:83:e5:77:fb:2a:bd:2a:02:7c:8d:2e:56:de:
         1a:60:f1:74:a5:d1:27:af:e1:4e:de:56:9b:aa:94:a9:5b:80:
         2f:1a:8c:4a:77:27:3e:e7:cd:1d:9d:86:de:ad:be:49:94:d6:
         4f:7d:33:0d:5f:88:d6:23:c1:d0:7b:37:3e:ed:f6:5a:0b:d1:
         50:aa:ec:a8:48:fc:df:41:8b:fa:de:57:21:ec:9e:ea:9f:5a:
         01:2b:f0:75:a4:ca:e4:59:dd:28:a5:7b:99:01:08:c0:c5:1d:
         53:56:1e:af:5f:c0:76:11:6b:ff:65:3b:76:1a:7b:41:7a:75:
         b4:cb:da:54
-----BEGIN CERTIFICATE-----
MIIEJjCCAw6gAwIBAgIEEAAA1TANBgkqhkiG9w0BAQsFADBEMQswCQYDVQQGEwJE
RTEPMA0GA1UECAwGSGVzc2VuMRQwEgYDVQQKDAtwcml2YWN5aWRlYTEOMAwGA1UE
AwwFQ0EwMDEwHhcNMTkwNDA1MDg0MDExWhcNMjAwNDA0MDg0MDExWjBUMQswCQYD
VQQGEwJERTEPMA0GA1UECAwGSGVzc2VuMRQwEgYDVQQKDAtwcml2YWN5aWRlYTEe
MBwGA1UEAwwVcmVxdWVzdGVyLmxvY2FsZG9tYWluMIIBIjANBgkqhkiG9w0BAQEF
AAOCAQ8AMIIBCgKCAQEAzb4UT/rOAT9CIhsdnK/dktJ/22y3PjlDQ2sTA/EF9Ad0
vHZpKAuvGY7X/OPNxljyyn8IbVP8BwJEJMa0NEyMBP4zDkDiILoCc1r39U9jbszG
tt9UHTc5fVE2Jl+93D+oi2uirrad1iHn30G4eigqaEjKqC3t4elGXlpybbSEOIeR
/ZQRCyiExsIvKvsB+TZ6CXXRM4g8c0FbyL+UiXCh8MC5LlBTHrEXZGn0LYHgqQ0O
Mum6VYqF8RtvSXm0f4jDDT5UiJs9HziMBPPuamMr9cbbtIOqxHhBOn1L4cg+ccob
YVnqxsTKMl7J6b8SKebGw2P+oFXaevFgmE0m7fpwLQIDAQABo4IBDjCCAQowCwYD
VR0PBAQDAgWgMAkGA1UdEwQCMAAwEQYJYIZIAYb4QgEBBAQDAgZAMDMGCWCGSAGG
+EIBDQQmFiRPcGVuU1NMIEdlbmVyYXRlZCBTZXJ2ZXIgQ2VydGlmaWNhdGUwHQYD
VR0OBBYEFFM/7V0JB7Nle6tFySRbCXeACpbtMHQGA1UdIwRtMGuAFPSnwMyRRq9k
85HyJ/jIsm+KhzJzoUikRjBEMQswCQYDVQQGEwJERTEPMA0GA1UECAwGSGVzc2Vu
MRQwEgYDVQQKDAtwcml2YWN5aWRlYTEOMAwGA1UEAwwFQ0EwMDGCCQD7yOusg80S
BzATBgNVHSUEDDAKBggrBgEFBQcDATANBgkqhkiG9w0BAQsFAAOCAQEAjMhojlLJ
isDV08OhjbfjbdGpoItUC5o2i7ZNsMojCWATQ2c0QRhTLuXr45vGbemEfjXtPB8x
6mj70yPHEPEWdcziy0BOfh6kqXBaZBq3VINLXkTz5xCnVjB9QL5kwg7Mc/mYhu1u
CHSxGFOV0xD28XVZobDf1ryEvAJcIGtJ8Dzyi2aD5Xf7Kr0qAnyNLlbeGmDxdKXR
J6/hTt5Wm6qUqVuALxqMSncnPufNHZ2G3q2+SZTWT30zDV+I1iPB0Hs3Pu32WgvR
UKrsqEj830GL+t5XIeye6p9aASvwdaTK5FndKKV7mQEIwMUdU1Yer1/AdhFr/2U7
dhp7QXp1tMvaVA==
-----END CERTIFICATE-----
