Certificate:
    Data:
        Version: 3 (0x2)
        Serial Number: 268435691 (0x100000eb)
    Signature Algorithm: sha256WithRSAEncryption
        Issuer: C=DE, ST=Hessen, O=privacyidea, CN=CA001
        Validity
            Not Before: Feb  8 22:02:35 2019 GMT
            Not After : Feb  8 22:02:35 2020 GMT
        Subject: CN=Steve Test/emailAddress=steve@openssl.org
        Subject Public Key Info:
            Public Key Algorithm: rsaEncryption
                Public-Key: (2048 bit)
                Modulus:
                    00:d2:81:89:20:51:48:0f:73:f4:11:32:24:d5:1f:
                    1c:fd:5c:f5:b6:e6:c5:f0:52:81:dc:d2:af:66:4a:
                    7c:93:31:61:5c:af:d1:6d:06:70:03:60:7c:72:0c:
                    88:dd:49:cd:9e:02:6c:d2:5a:d7:53:0f:f3:da:be:
                    69:64:b5:0f:0c:00:e3:b3:50:47:a3:b3:9b:ba:13:
                    50:d6:58:5a:4b:ab:39:e0:11:ca:0a:27:67:03:78:
                    22:66:6d:92:1e:1b:5c:49:ae:e6:6b:d1:8e:3b:9d:
                    06:d3:c6:ac:4d:53:43:10:ab:e8:96:c1:87:82:97:
                    99:8f:20:d3:99:12:37:31:84:e1:8a:ff:29:03:5f:
                    22:90:3e:7f:9b:e0:20:c1:ad:dc:ae:4c:39:1a:31:
                    96:17:02:8c:b2:d9:b4:0d:20:12:9b:7d:86:54:fd:
                    33:fd:c1:2a:62:46:f8:60:96:cf:6e:01:6f:22:df:
                    13:47:e7:97:ec:05:72:23:a3:62:f8:fa:ef:ac:9c:
                    72:f0:37:cb:2f:37:cf:90:a8:27:51:86:c6:d7:78:
                    08:8f:7e:25:a2:15:70:a2:fb:1c:b6:15:5e:a0:97:
                    8b:81:4c:09:28:8a:27:3b:94:bc:71:db:5b:71:37:
                    9a:2b:16:e0:6f:b5:c9:f5:4b:4f:20:ba:65:cf:af:
                    ad:ad
                Exponent: 65537 (0x10001)
        X509v3 extensions:
            X509v3 Key Usage: 
                Digital Signature, Key Encipherment
            X509v3 Basic Constraints: 
                CA:FALSE
            Netscape Cert Type: 
                SSL Server
            Netscape Comment: 
                OpenSSL Generated Server Certificate
            X509v3 Subject Key Identifier: 
                E5:25:6D:3E:AF:0D:DD:3F:4C:F2:45:19:39:D5:14:DB:7E:9C:C0:AD
            X509v3 Authority Key Identifier: 
                keyid:F4:A7:C0:CC:91:46:AF:64:F3:91:F2:27:F8:C8:B2:6F:8A:87:32:73
                DirName:/C=DE/ST=Hessen/O=privacyidea/CN=CA001
                serial:FB:C8:EB:AC:83:CD:12:07

            X509v3 Extended Key Usage: 
                TLS Web Server Authentication
    Signature Algorithm: sha256WithRSAEncryption
         58:f5:73:a5:af:f9:76:97:a2:4a:36:52:2c:c0:4d:ca:55:95:
         99:f7:80:38:8b:17:c1:68:88:43:00:98:df:c6:8a:56:d4:6f:
         b8:28:07:bb:7d:b8:02:00:1c:bd:45:ff:d2:e7:2e:c0:bb:8f:
         44:4c:18:58:6f:73:fc:63:21:2d:e2:48:a6:76:32:23:59:e3:
         f7:4e:ee:cc:cb:62:e3:83:11:9b:bd:47:3d:91:68:a3:5d:8f:
         53:63:a8:23:17:35:14:72:74:ee:bb:4e:ed:f0:b4:47:36:d9:
         03:08:8a:ac:05:31:56:70:2c:1f:ae:01:6e:9c:85:6e:e8:f1:
         c0:3e:26:bb:1d:42:d7:b6:e2:ac:97:a9:02:3a:5e:68:87:95:
         1e:99:d1:f1:f4:8c:15:07:92:08:15:f3:1f:c2:e7:09:47:5b:
         d2:5b:e5:06:12:81:b8:a0:a9:68:c4:7e:b0:a2:ff:2d:4e:2e:
         b6:33:49:29:a0:65:23:73:5b:f4:14:1b:5e:91:df:ba:b4:f8:
         88:ed:15:5e:83:22:1d:06:9f:1c:b7:15:bb:29:58:62:32:1b:
         a0:0e:29:72:8a:8e:fc:3f:b8:a4:e1:98:db:45:ea:c9:7f:6d:
         6f:d8:75:46:7d:ba:13:11:d4:2d:3f:c5:b7:95:db:d4:61:2d:
         e2:82:72:f8
-----BEGIN CERTIFICATE-----
MIIECTCCAvGgAwIBAgIEEAAA6zANBgkqhkiG9w0BAQsFADBEMQswCQYDVQQGEwJE
RTEPMA0GA1UECAwGSGVzc2VuMRQwEgYDVQQKDAtwcml2YWN5aWRlYTEOMAwGA1UE
AwwFQ0EwMDEwHhcNMTkwMjA4MjIwMjM1WhcNMjAwMjA4MjIwMjM1WjA3MRMwEQYD
VQQDDApTdGV2ZSBUZXN0MSAwHgYJKoZIhvcNAQkBFhFzdGV2ZUBvcGVuc3NsLm9y
ZzCCASIwDQYJKoZIhvcNAQEBBQADggEPADCCAQoCggEBANKBiSBRSA9z9BEyJNUf
HP1c9bbmxfBSgdzSr2ZKfJMxYVyv0W0GcANgfHIMiN1JzZ4CbNJa11MP89q+aWS1
DwwA47NQR6Ozm7oTUNZYWkurOeARygonZwN4ImZtkh4bXEmu5mvRjjudBtPGrE1T
QxCr6JbBh4KXmY8g05kSNzGE4Yr/KQNfIpA+f5vgIMGt3K5MORoxlhcCjLLZtA0g
Ept9hlT9M/3BKmJG+GCWz24BbyLfE0fnl+wFciOjYvj676yccvA3yy83z5CoJ1GG
xtd4CI9+JaIVcKL7HLYVXqCXi4FMCSiKJzuUvHHbW3E3misW4G+1yfVLTyC6Zc+v
ra0CAwEAAaOCAQ4wggEKMAsGA1UdDwQEAwIFoDAJBgNVHRMEAjAAMBEGCWCGSAGG
+EIBAQQEAwIGQDAzBglghkgBhvhCAQ0EJhYkT3BlblNTTCBHZW5lcmF0ZWQgU2Vy
dmVyIENlcnRpZmljYXRlMB0GA1UdDgQWBBTlJW0+rw3dP0zyRRk51RTbfpzArTB0
BgNVHSMEbTBrgBT0p8DMkUavZPOR8if4yLJviocyc6FIpEYwRDELMAkGA1UEBhMC
REUxDzANBgNVBAgMBkhlc3NlbjEUMBIGA1UECgwLcHJpdmFjeWlkZWExDjAMBgNV
BAMMBUNBMDAxggkA+8jrrIPNEgcwEwYDVR0lBAwwCgYIKwYBBQUHAwEwDQYJKoZI
hvcNAQELBQADggEBAFj1c6Wv+XaXoko2UizATcpVlZn3gDiLF8FoiEMAmN/GilbU
b7goB7t9uAIAHL1F/9LnLsC7j0RMGFhvc/xjIS3iSKZ2MiNZ4/dO7szLYuODEZu9
Rz2RaKNdj1NjqCMXNRRydO67Tu3wtEc22QMIiqwFMVZwLB+uAW6chW7o8cA+Jrsd
Qte24qyXqQI6XmiHlR6Z0fH0jBUHkggV8x/C5wlHW9Jb5QYSgbigqWjEfrCi/y1O
LrYzSSmgZSNzW/QUG16R37q0+IjtFV6DIh0Gnxy3FbspWGIyG6AOKXKKjvw/uKTh
mNtF6sl/bW/YdUZ9uhMR1C0/xbeV29RhLeKCcvg=
-----END CERTIFICATE-----
