Certificate:
    Data:
        Version: 3 (0x2)
        Serial Number: 268435678 (0x100000de)
    Signature Algorithm: sha256WithRSAEncryption
        Issuer: C=DE, ST=Hessen, O=privacyidea, CN=CA001
        Validity
            Not Before: Mar 20 08:53:31 2019 GMT
            Not After : Mar 19 08:53:31 2020 GMT
        Subject: OU=realm1, CN=cornelius/emailAddress=user@localhost.localdomain
        Subject Public Key Info:
            Public Key Algorithm: rsaEncryption
                Public-Key: (2048 bit)
                Modulus:
                    00:c5:65:47:25:01:ac:23:a6:c7:5b:40:b4:90:09:
                    a1:0c:ef:b6:d3:fe:5f:64:bf:71:05:0a:b7:a5:df:
                    e0:26:7e:86:de:45:37:10:49:6b:9f:b3:da:dd:3e:
                    50:d0:79:9e:81:f4:91:97:d8:0d:48:a9:64:1d:b3:
                    94:52:ef:8a:63:82:30:25:43:68:cf:da:b5:34:83:
                    b7:b8:3b:3c:8e:16:e5:af:d2:fe:2b:c0:12:c3:66:
                    93:28:40:3d:9f:41:0e:cb:ad:73:e5:94:61:30:0d:
                    a1:e1:a3:02:38:f5:3c:a5:58:ef:44:19:61:36:03:
                    8f:c0:b2:9a:01:b6:3d:f4:8b:f8:45:ef:3c:16:1f:
                    98:3a:90:98:fd:40:6a:98:33:99:30:5a:c7:50:e1:
                    ec:ae:dd:1c:d7:a2:68:e4:ea:66:f4:c4:ac:6e:a1:
                    f2:c4:59:95:45:05:11:5d:3c:1e:c7:27:0e:07:ef:
                    8e:04:58:0d:16:10:4e:db:57:f7:35:01:c9:9b:66:
                    85:71:71:b2:6a:bc:01:16:03:8b:fc:d8:33:d5:4f:
                    77:25:68:4a:4d:80:1e:df:42:d8:35:67:f6:03:2a:
                    9c:1e:54:5e:ae:7e:8f:6b:ec:9e:c5:32:69:c0:9b:
                    3a:18:aa:7a:e8:93:91:4d:19:e1:b6:08:c0:59:01:
                    4b:0d
                Exponent: 65537 (0x10001)
        X509v3 extensions:
            X509v3 Key Usage: 
                Digital Signature, Key Encipherment
            X509v3 Basic Constraints: 
                CA:FALSE
            Netscape Cert Type: 
                SSL Server
            Netscape Comment: 
                OpenSSL Generated Server Certificate
            X509v3 Subject Key Identifier: 
                FA:15:47:F2:65:48:0F:27:0D:AF:6F:46:51:EF:DA:2A:D1:83:40:FE
            X509v3 Authority Key Identifier: 
                keyid:F4:A7:C0:CC:91:46:AF:64:F3:91:F2:27:F8:C8:B2:6F:8A:87:32:73
                DirName:/C=DE/ST=Hessen/O=privacyidea/CN=CA001
                serial:FB:C8:EB:AC:83:CD:12:07

            X509v3 Extended Key Usage: 
                TLS Web Server Authentication
    Signature Algorithm: sha256WithRSAEncryption
         43:fe:ba:ec:05:84:01:cd:d7:2c:79:a2:dd:de:43:42:6d:fc:
         fd:31:1f:f9:10:aa:10:6f:7a:a3:b8:2a:e4:da:6f:18:33:28:
         f7:90:c8:60:88:6e:dd:a7:3f:3b:8f:ed:74:6a:df:3f:d9:4e:
         da:ed:25:6d:94:ce:e2:a8:f8:08:15:81:9f:33:cd:ff:ca:4e:
         b0:be:23:72:1e:c3:79:dc:d9:8b:46:84:0d:2f:54:dc:1f:7a:
         43:5b:0d:34:2f:ed:34:20:26:0c:6c:bd:03:c5:a2:27:1a:5f:
         fa:58:58:88:1a:ae:0f:f8:43:5d:ad:08:f7:7f:2a:8b:37:5b:
         4e:17:bf:9d:28:d1:a9:43:21:23:42:a9:2b:ae:86:da:9e:85:
         75:36:c7:2f:5a:76:bd:d2:b6:0c:b7:28:0b:df:af:46:80:99:
         0b:47:7e:b4:aa:51:4c:0b:ba:d8:e2:7a:b2:51:60:7a:dc:51:
         89:4f:42:2c:42:ab:77:f1:ab:44:07:4d:0c:81:31:28:34:34:
         d4:56:a0:56:e6:f3:45:d8:57:08:f2:78:e6:13:d8:c2:a1:0b:
         eb:11:3f:e8:23:1e:70:a6:16:eb:19:61:bc:80:72:dc:9d:5c:
         8c:96:19:a9:12:6f:87:d4:1c:75:93:8f:fe:ed:17:38:8e:33:
         8b:9f:a3:6c
-----BEGIN CERTIFICATE-----
MIIEIjCCAwqgAwIBAgIEEAAA3jANBgkqhkiG9w0BAQsFADBEMQswCQYDVQQGEwJE
RTEPMA0GA1UECAwGSGVzc2VuMRQwEgYDVQQKDAtwcml2YWN5aWRlYTEOMAwGA1UE
AwwFQ0EwMDEwHhcNMTkwMzIwMDg1MzMxWhcNMjAwMzE5MDg1MzMxWjBQMQ8wDQYD
VQQLDAZyZWFsbTExEjAQBgNVBAMMCWNvcm5lbGl1czEpMCcGCSqGSIb3DQEJARYa
dXNlckBsb2NhbGhvc3QubG9jYWxkb21haW4wggEiMA0GCSqGSIb3DQEBAQUAA4IB
DwAwggEKAoIBAQDFZUclAawjpsdbQLSQCaEM77bT/l9kv3EFCrel3+AmfobeRTcQ
SWufs9rdPlDQeZ6B9JGX2A1IqWQds5RS74pjgjAlQ2jP2rU0g7e4OzyOFuWv0v4r
wBLDZpMoQD2fQQ7LrXPllGEwDaHhowI49TylWO9EGWE2A4/AspoBtj30i/hF7zwW
H5g6kJj9QGqYM5kwWsdQ4eyu3RzXomjk6mb0xKxuofLEWZVFBRFdPB7HJw4H744E
WA0WEE7bV/c1AcmbZoVxcbJqvAEWA4v82DPVT3claEpNgB7fQtg1Z/YDKpweVF6u
fo9r7J7FMmnAmzoYqnrok5FNGeG2CMBZAUsNAgMBAAGjggEOMIIBCjALBgNVHQ8E
BAMCBaAwCQYDVR0TBAIwADARBglghkgBhvhCAQEEBAMCBkAwMwYJYIZIAYb4QgEN
BCYWJE9wZW5TU0wgR2VuZXJhdGVkIFNlcnZlciBDZXJ0aWZpY2F0ZTAdBgNVHQ4E
FgQU+hVH8mVIDycNr29GUe/aKtGDQP4wdAYDVR0jBG0wa4AU9KfAzJFGr2TzkfIn
+Miyb4qHMnOhSKRGMEQxCzAJBgNVBAYTAkRFMQ8wDQYDVQQIDAZIZXNzZW4xFDAS
BgNVBAoMC3ByaXZhY3lpZGVhMQ4wDAYDVQQDDAVDQTAwMYIJAPvI66yDzRIHMBMG
A1UdJQQMMAoGCCsGAQUFBwMBMA0GCSqGSIb3DQEBCwUAA4IBAQBD/rrsBYQBzdcs
eaLd3kNCbfz9MR/5EKoQb3qjuCrk2m8YMyj3kMhgiG7dpz87j+10at8/2U7a7SVt
lM7iqPgIFYGfM83/yk6wviNyHsN53NmLRoQNL1TcH3pDWw00L+00ICYMbL0DxaIn
Gl/6WFiIGq4P+ENdrQj3fyqLN1tOF7+dKNGpQyEjQqkrrobanoV1NscvWna90rYM
tygL369GgJkLR360qlFMC7rY4nqyUWB63FGJT0IsQqt38atEB00MgTEoNDTUVqBW
5vNF2FcI8njmE9jCoQvrET/oIx5wphbrGWG8gHLcnVyMlhmpEm+H1Bx1k4/+7Rc4
jjOLn6Ns
-----END CERTIFICATE-----
