Certificate:
    Data:
        Version: 3 (0x2)
        Serial Number: 268435694 (0x100000ee)
    Signature Algorithm: sha256WithRSAEncryption
        Issuer: C=DE, ST=Hessen, O=privacyidea, CN=CA001
        Validity
            Not Before: Feb  8 22:06:21 2019 GMT
            Not After : Feb  8 22:06:21 2020 GMT
        Subject: OU=realm1, CN=cornelius/emailAddress=user@localhost.localdomain
        Subject Public Key Info:
            Public Key Algorithm: rsaEncryption
                Public-Key: (2048 bit)
                Modulus:
                    00:bf:7e:16:62:7d:32:19:7e:ba:e1:88:9b:4d:ca:
                    14:d7:cc:f8:58:8e:f5:2e:08:26:ed:d8:6a:8b:34:
                    43:18:63:62:01:5d:48:db:a9:09:89:85:f2:98:af:
                    a8:0a:07:3a:1f:d7:6d:9e:b5:0c:b2:64:02:53:c7:
                    e5:bf:6e:5d:9c:39:7c:37:fd:97:35:ec:6e:eb:b9:
                    6b:7f:da:33:29:09:bf:48:3f:0b:ee:a7:b8:c5:9e:
                    ce:eb:2b:38:78:e6:76:44:e2:0f:35:8f:32:10:98:
                    f6:9c:4e:37:95:ea:ec:fa:10:71:53:9c:88:ca:5e:
                    2c:67:1f:fb:e7:2f:b7:fe:55:34:64:ac:99:ae:3f:
                    d8:5b:96:c6:c4:f9:ae:2b:78:96:51:b1:e0:b8:a7:
                    11:51:c9:ea:e2:d4:c9:5a:63:2f:f4:a7:1a:56:cf:
                    81:24:b7:4a:d3:f3:d8:17:52:c3:2c:a6:f5:73:65:
                    7c:9c:8f:78:f5:a0:aa:be:86:75:2d:bd:45:5b:6a:
                    1d:7b:c3:6b:2f:1f:8e:a2:9e:35:47:3b:af:20:d5:
                    e2:2b:52:2d:eb:47:d2:25:32:5c:23:ce:c8:ae:c0:
                    5d:32:ae:67:3f:ba:98:63:d4:e2:f7:14:d3:7d:33:
                    7f:10:89:fe:27:5e:d3:d9:a5:cc:c0:02:50:2b:88:
                    8b:09
                Exponent: 65537 (0x10001)
        X509v3 extensions:
            X509v3 Key Usage: 
                Digital Signature, Key Encipherment
            X509v3 Basic Constraints: 
                CA:FALSE
            Netscape Cert Type: 
                SSL Server
            Netscape Comment: 
                OpenSSL Generated Server Certificate
            X509v3 Subject Key Identifier: 
                D0:20:9F:D1:91:0A:96:A5:5D:B5:09:51:D3:79:5D:BA:C5:83:CD:6E
            X509v3 Authority Key Identifier: 
                keyid:F4:A7:C0:CC:91:46:AF:64:F3:91:F2:27:F8:C8:B2:6F:8A:87:32:73
                DirName:/C=DE/ST=Hessen/O=privacyidea/CN=CA001
                serial:FB:C8:EB:AC:83:CD:12:07

            X509v3 Extended Key Usage: 
                TLS Web Server Authentication
    Signature Algorithm: sha256WithRSAEncryption
         84:1d:61:46:da:aa:7b:21:8c:e6:8d:15:b2:5b:35:e4:0f:26:
         ca:03:de:9e:ba:69:ab:a6:2a:4e:db:25:4f:e5:9d:44:b8:85:
         74:b0:0c:34:70:0a:11:36:55:23:51:cd:0c:bb:ff:b8:e7:f0:
         97:65:e5:f3:61:21:c1:f6:8e:1a:2d:aa:45:b4:c6:c1:00:36:
         af:6e:9b:ee:b0:b4:40:a2:bb:4b:f1:60:8f:d8:57:f0:e4:ab:
         ac:14:10:ca:a3:89:57:9c:88:32:2d:51:c0:1f:ea:05:32:10:
         2e:93:00:20:f6:6c:c2:64:19:ba:30:25:61:52:7a:26:c4:51:
         54:c9:d3:f5:65:20:f5:b6:d2:16:3b:67:f5:7d:fc:ec:8d:f1:
         a3:14:8b:15:ba:b1:48:56:e2:df:f1:2e:12:a3:db:f0:e5:c2:
         42:5b:1d:40:97:16:60:00:f7:3c:67:40:a7:81:0e:ca:e0:87:
         4f:f1:e8:a1:fe:f0:4a:52:2a:36:40:40:85:31:f0:c9:ab:88:
         e2:ca:f4:31:22:ba:92:99:f5:f1:bb:6a:69:63:ff:74:28:1c:
         12:22:63:92:b4:c5:70:3a:dc:68:91:32:b2:82:31:7e:6e:d0:
         79:07:ef:bc:b8:11:ac:00:a2:a9:1f:40:49:01:88:32:8d:db:
         e5:21:8a:cf
-----BEGIN CERTIFICATE-----
MIIEIjCCAwqgAwIBAgIEEAAA7jANBgkqhkiG9w0BAQsFADBEMQswCQYDVQQGEwJE
RTEPMA0GA1UECAwGSGVzc2VuMRQwEgYDVQQKDAtwcml2YWN5aWRlYTEOMAwGA1UE
AwwFQ0EwMDEwHhcNMTkwMjA4MjIwNjIxWhcNMjAwMjA4MjIwNjIxWjBQMQ8wDQYD
VQQLDAZyZWFsbTExEjAQBgNVBAMMCWNvcm5lbGl1czEpMCcGCSqGSIb3DQEJARYa
dXNlckBsb2NhbGhvc3QubG9jYWxkb21haW4wggEiMA0GCSqGSIb3DQEBAQUAA4IB
DwAwggEKAoIBAQC/fhZifTIZfrrhiJtNyhTXzPhYjvUuCCbt2GqLNEMYY2IBXUjb
qQmJhfKYr6gKBzof122etQyyZAJTx+W/bl2cOXw3/Zc17G7ruWt/2jMpCb9IPwvu
p7jFns7rKzh45nZE4g81jzIQmPacTjeV6uz6EHFTnIjKXixnH/vnL7f+VTRkrJmu
P9hblsbE+a4reJZRseC4pxFRyeri1MlaYy/0pxpWz4Ekt0rT89gXUsMspvVzZXyc
j3j1oKq+hnUtvUVbah17w2svH46injVHO68g1eIrUi3rR9IlMlwjzsiuwF0yrmc/
uphj1OL3FNN9M38Qif4nXtPZpczAAlAriIsJAgMBAAGjggEOMIIBCjALBgNVHQ8E
BAMCBaAwCQYDVR0TBAIwADARBglghkgBhvhCAQEEBAMCBkAwMwYJYIZIAYb4QgEN
BCYWJE9wZW5TU0wgR2VuZXJhdGVkIFNlcnZlciBDZXJ0aWZpY2F0ZTAdBgNVHQ4E
FgQU0CCf0ZEKlqVdtQlR03ldusWDzW4wdAYDVR0jBG0wa4AU9KfAzJFGr2TzkfIn
+Miyb4qHMnOhSKRGMEQxCzAJBgNVBAYTAkRFMQ8wDQYDVQQIDAZIZXNzZW4xFDAS
BgNVBAoMC3ByaXZhY3lpZGVhMQ4wDAYDVQQDDAVDQTAwMYIJAPvI66yDzRIHMBMG
A1UdJQQMMAoGCCsGAQUFBwMBMA0GCSqGSIb3DQEBCwUAA4IBAQCEHWFG2qp7IYzm
jRWyWzXkDybKA96eummrpipO2yVP5Z1EuIV0sAw0cAoRNlUjUc0Mu/+45/CXZeXz
YSHB9o4aLapFtMbBADavbpvusLRAortL8WCP2Ffw5KusFBDKo4lXnIgyLVHAH+oF
MhAukwAg9mzCZBm6MCVhUnomxFFUydP1ZSD1ttIWO2f1ffzsjfGjFIsVurFIVuLf
8S4So9vw5cJCWx1AlxZgAPc8Z0CngQ7K4IdP8eih/vBKUio2QECFMfDJq4jiyvQx
IrqSmfXxu2ppY/90KBwSImOStMVwOtxokTKygjF+btB5B++8uBGsAKKpH0BJAYgy
jdvlIYrP
-----END CERTIFICATE-----
