Certificate:
    Data:
        Version: 3 (0x2)
        Serial Number: 268435687 (0x100000e7)
    Signature Algorithm: sha256WithRSAEncryption
        Issuer: C=DE, ST=Hessen, O=privacyidea, CN=CA001
        Validity
            Not Before: Mar 13 16:37:48 2019 GMT
            Not After : Mar 12 16:37:48 2020 GMT
        Subject: C=DE, ST=Hessen, O=privacyidea, CN=requester.localdomain
        Subject Public Key Info:
            Public Key Algorithm: rsaEncryption
                Public-Key: (2048 bit)
                Modulus:
                    00:cd:be:14:4f:fa:ce:01:3f:42:22:1b:1d:9c:af:
                    dd:92:d2:7f:db:6c:b7:3e:39:43:43:6b:13:03:f1:
                    05:f4:07:74:bc:76:69:28:0b:af:19:8e:d7:fc:e3:
                    cd:c6:58:f2:ca:7f:08:6d:53:fc:07:02:44:24:c6:
                    b4:34:4c:8c:04:fe:33:0e:40:e2:20:ba:02:73:5a:
                    f7:f5:4f:63:6e:cc:c6:b6:df:54:1d:37:39:7d:51:
                    36:26:5f:bd:dc:3f:a8:8b:6b:a2:ae:b6:9d:d6:21:
                    e7:df:41:b8:7a:28:2a:68:48:ca:a8:2d:ed:e1:e9:
                    46:5e:5a:72:6d:b4:84:38:87:91:fd:94:11:0b:28:
                    84:c6:c2:2f:2a:fb:01:f9:36:7a:09:75:d1:33:88:
                    3c:73:41:5b:c8:bf:94:89:70:a1:f0:c0:b9:2e:50:
                    53:1e:b1:17:64:69:f4:2d:81:e0:a9:0d:0e:32:e9:
                    ba:55:8a:85:f1:1b:6f:49:79:b4:7f:88:c3:0d:3e:
                    54:88:9b:3d:1f:38:8c:04:f3:ee:6a:63:2b:f5:c6:
                    db:b4:83:aa:c4:78:41:3a:7d:4b:e1:c8:3e:71:ca:
                    1b:61:59:ea:c6:c4:ca:32:5e:c9:e9:bf:12:29:e6:
                    c6:c3:63:fe:a0:55:da:7a:f1:60:98:4d:26:ed:fa:
                    70:2d
                Exponent: 65537 (0x10001)
        X509v3 extensions:
            X509v3 Key Usage: 
                Digital Signature, Key Encipherment
            X509v3 Basic Constraints: 
                CA:FALSE
            Netscape Cert Type: 
                SSL Server
            Netscape Comment: 
                OpenSSL Generated Server Certificate
            X509v3 Subject Key Identifier: 
                53:3F:ED:5D:09:07:B3:65:7B:AB:45:C9:24:5B:09:77:80:0A:96:ED
            X509v3 Authority Key Identifier: 
                keyid:F4:A7:C0:CC:91:46:AF:64:F3:91:F2:27:F8:C8:B2:6F:8A:87:32:73
                DirName:/C=DE/ST=Hessen/O=privacyidea/CN=CA001
                serial:FB:C8:EB:AC:83:CD:12:07

            X509v3 Extended Key Usage: 
                TLS Web Server Authentication
    Signature Algorithm: sha256WithRSAEncryption
         2b:66:dd:e9:07:6b:75:81:63:3f:e5:84:ef:3a:75:d2:c1:07:
         ea:36:c2:2a:2c:a0:05:08:75:3f:2e:6d:f7:03:30:01:46:41:
         bb:ab:53:30:81:65:cb:6d:72:1f:5f:0b:d6:cb:14:64:3f:ce:
         70:08:21:1c:d5:59:2f:87:b7:63:af:f6:c1:af:45:60:5f:72:
         e3:9d:13:af:61:a4:78:e9:49:e3:78:b8:f9:2c:ef:e1:22:a9:
         00:4b:03:36:9c:63:d1:a8:98:2e:ff:fe:dd:2a:8e:2a:0a:4f:
         47:fb:08:6d:bc:b3:4a:7b:0f:34:ec:fb:b1:1a:97:76:87:3f:
         83:5b:18:63:74:25:d7:b0:ac:46:f1:03:95:5c:e8:90:0c:9f:
         ca:e2:36:25:2f:2f:bf:c4:78:db:9c:0f:72:ee:6d:d9:fd:e5:
         1f:f3:4a:58:27:93:ca:c8:a0:ac:40:c4:07:66:35:76:df:b2:
         fb:2b:ff:fe:17:21:16:28:12:9c:cf:8c:b3:0f:f9:a4:37:9f:
         d0:00:32:93:5f:6f:14:ec:88:b0:ad:1c:73:c4:64:27:1d:5b:
         9d:34:0f:52:20:19:61:18:fc:94:31:f0:86:22:2b:c5:b5:86:
         93:d5:cb:75:fe:43:26:f4:fd:a1:8a:05:6d:24:1f:fa:a2:80:
         3c:52:2e:43
-----BEGIN CERTIFICATE-----
MIIEJjCCAw6gAwIBAgIEEAAA5zANBgkqhkiG9w0BAQsFADBEMQswCQYDVQQGEwJE
RTEPMA0GA1UECAwGSGVzc2VuMRQwEgYDVQQKDAtwcml2YWN5aWRlYTEOMAwGA1UE
AwwFQ0EwMDEwHhcNMTkwMzEzMTYzNzQ4WhcNMjAwMzEyMTYzNzQ4WjBUMQswCQYD
VQQGEwJERTEPMA0GA1UECAwGSGVzc2VuMRQwEgYDVQQKDAtwcml2YWN5aWRlYTEe
MBwGA1UEAwwVcmVxdWVzdGVyLmxvY2FsZG9tYWluMIIBIjANBgkqhkiG9w0BAQEF
AAOCAQ8AMIIBCgKCAQEAzb4UT/rOAT9CIhsdnK/dktJ/22y3PjlDQ2sTA/EF9Ad0
vHZpKAuvGY7X/OPNxljyyn8IbVP8BwJEJMa0NEyMBP4zDkDiILoCc1r39U9jbszG
tt9UHTc5fVE2Jl+93D+oi2uirrad1iHn30G4eigqaEjKqC3t4elGXlpybbSEOIeR
/ZQRCyiExsIvKvsB+TZ6CXXRM4g8c0FbyL+UiXCh8MC5LlBTHrEXZGn0LYHgqQ0O
Mum6VYqF8RtvSXm0f4jDDT5UiJs9HziMBPPuamMr9cbbtIOqxHhBOn1L4cg+ccob
YVnqxsTKMl7J6b8SKebGw2P+oFXaevFgmE0m7fpwLQIDAQABo4IBDjCCAQowCwYD
VR0PBAQDAgWgMAkGA1UdEwQCMAAwEQYJYIZIAYb4QgEBBAQDAgZAMDMGCWCGSAGG
+EIBDQQmFiRPcGVuU1NMIEdlbmVyYXRlZCBTZXJ2ZXIgQ2VydGlmaWNhdGUwHQYD
VR0OBBYEFFM/7V0JB7Nle6tFySRbCXeACpbtMHQGA1UdIwRtMGuAFPSnwMyRRq9k
85HyJ/jIsm+KhzJzoUikRjBEMQswCQYDVQQGEwJERTEPMA0GA1UECAwGSGVzc2Vu
MRQwEgYDVQQKDAtwcml2YWN5aWRlYTEOMAwGA1UEAwwFQ0EwMDGCCQD7yOusg80S
BzATBgNVHSUEDDAKBggrBgEFBQcDATANBgkqhkiG9w0BAQsFAAOCAQEAK2bd6Qdr
dYFjP+WE7zp10sEH6jbCKiygBQh1Py5t9wMwAUZBu6tTMIFly21yH18L1ssUZD/O
cAghHNVZL4e3Y6/2wa9FYF9y450Tr2GkeOlJ43i4+Szv4SKpAEsDNpxj0aiYLv/+
3SqOKgpPR/sIbbyzSnsPNOz7sRqXdoc/g1sYY3Ql17CsRvEDlVzokAyfyuI2JS8v
v8R425wPcu5t2f3lH/NKWCeTysigrEDEB2Y1dt+y+yv//hchFigSnM+Msw/5pDef
0AAyk19vFOyIsK0cc8RkJx1bnTQPUiAZYRj8lDHwhiIrxbWGk9XLdf5DJvT9oYoF
bSQf+qKAPFIuQw==
-----END CERTIFICATE-----
