Certificate:
    Data:
        Version: 3 (0x2)
        Serial Number: 268435681 (0x100000e1)
    Signature Algorithm: sha256WithRSAEncryption
        Issuer: C=DE, ST=Hessen, O=privacyidea, CN=CA001
        Validity
            Not Before: Mar 13 16:27:49 2019 GMT
            Not After : Mar 12 16:27:49 2020 GMT
        Subject: C=DE, ST=Hessen, O=privacyidea, CN=requester.localdomain
        Subject Public Key Info:
            Public Key Algorithm: rsaEncryption
                Public-Key: (2048 bit)
                Modulus:
                    00:cd:be:14:4f:fa:ce:01:3f:42:22:1b:1d:9c:af:
                    dd:92:d2:7f:db:6c:b7:3e:39:43:43:6b:13:03:f1:
                    05:f4:07:74:bc:76:69:28:0b:af:19:8e:d7:fc:e3:
                    cd:c6:58:f2:ca:7f:08:6d:53:fc:07:02:44:24:c6:
                    b4:34:4c:8c:04:fe:33:0e:40:e2:20:ba:02:73:5a:
                    f7:f5:4f:63:6e:cc:c6:b6:df:54:1d:37:39:7d:51:
                    36:26:5f:bd:dc:3f:a8:8b:6b:a2:ae:b6:9d:d6:21:
                    e7:df:41:b8:7a:28:2a:68:48:ca:a8:2d:ed:e1:e9:
                    46:5e:5a:72:6d:b4:84:38:87:91:fd:94:11:0b:28:
                    84:c6:c2:2f:2a:fb:01:f9:36:7a:09:75:d1:33:88:
                    3c:73:41:5b:c8:bf:94:89:70:a1:f0:c0:b9:2e:50:
                    53:1e:b1:17:64:69:f4:2d:81:e0:a9:0d:0e:32:e9:
                    ba:55:8a:85:f1:1b:6f:49:79:b4:7f:88:c3:0d:3e:
                    54:88:9b:3d:1f:38:8c:04:f3:ee:6a:63:2b:f5:c6:
                    db:b4:83:aa:c4:78:41:3a:7d:4b:e1:c8:3e:71:ca:
                    1b:61:59:ea:c6:c4:ca:32:5e:c9:e9:bf:12:29:e6:
                    c6:c3:63:fe:a0:55:da:7a:f1:60:98:4d:26:ed:fa:
                    70:2d
                Exponent: 65537 (0x10001)
        X509v3 extensions:
            X509v3 Key Usage: 
                Digital Signature, Key Encipherment
            X509v3 Basic Constraints: 
                CA:FALSE
            Netscape Cert Type: 
                SSL Server
            Netscape Comment: 
                OpenSSL Generated Server Certificate
            X509v3 Subject Key Identifier: 
                53:3F:ED:5D:09:07:B3:65:7B:AB:45:C9:24:5B:09:77:80:0A:96:ED
            X509v3 Authority Key Identifier: 
                keyid:F4:A7:C0:CC:91:46:AF:64:F3:91:F2:27:F8:C8:B2:6F:8A:87:32:73
                DirName:/C=DE/ST=Hessen/O=privacyidea/CN=CA001
                serial:FB:C8:EB:AC:83:CD:12:07

            X509v3 Extended Key Usage: 
                TLS Web Server Authentication
    Signature Algorithm: sha256WithRSAEncryption
         8f:9b:73:af:d8:a7:04:f9:ef:79:0b:57:75:f5:8a:62:c3:18:
         79:59:75:af:17:8c:a5:d1:d9:f0:6d:c3:0f:28:42:ab:b5:2c:
         28:38:f5:ae:c8:fe:d3:67:91:ec:49:85:d8:aa:0b:8c:ac:92:
         b2:e3:1e:39:2d:d9:ac:bb:b7:a2:b0:7a:dd:fc:f6:9c:3b:ed:
         98:98:68:1e:f6:e1:19:d2:18:04:8a:e3:41:87:f7:63:f2:32:
         f1:86:59:f5:fe:f7:a8:48:ee:41:d6:f0:84:90:2d:a6:1f:d1:
         7f:91:fe:68:b0:c8:94:6f:1a:5b:33:5b:7a:60:69:cb:df:38:
         75:83:3e:ab:36:f3:8b:e0:d9:1f:94:24:9f:ac:bb:17:8f:cf:
         11:16:68:c0:70:bf:87:68:e5:2c:ae:4a:26:28:ae:6b:dd:2c:
         71:a9:fa:1e:65:37:7b:64:95:54:16:73:a3:d3:15:18:3e:a5:
         da:9e:e5:12:1a:ae:db:6b:5b:53:b0:83:d8:39:7f:cb:56:96:
         4b:9b:10:6e:5f:ab:32:e4:f1:56:d9:5f:ce:8e:81:3f:34:d0:
         21:9d:84:15:55:82:5f:e0:5f:f6:24:5e:f4:b6:e9:41:61:0d:
         5a:51:b5:bc:67:94:00:d4:10:58:26:69:3b:6a:9c:25:5e:a4:
         66:f2:12:18
-----BEGIN CERTIFICATE-----
MIIEJjCCAw6gAwIBAgIEEAAA4TANBgkqhkiG9w0BAQsFADBEMQswCQYDVQQGEwJE
RTEPMA0GA1UECAwGSGVzc2VuMRQwEgYDVQQKDAtwcml2YWN5aWRlYTEOMAwGA1UE
AwwFQ0EwMDEwHhcNMTkwMzEzMTYyNzQ5WhcNMjAwMzEyMTYyNzQ5WjBUMQswCQYD
VQQGEwJERTEPMA0GA1UECAwGSGVzc2VuMRQwEgYDVQQKDAtwcml2YWN5aWRlYTEe
MBwGA1UEAwwVcmVxdWVzdGVyLmxvY2FsZG9tYWluMIIBIjANBgkqhkiG9w0BAQEF
AAOCAQ8AMIIBCgKCAQEAzb4UT/rOAT9CIhsdnK/dktJ/22y3PjlDQ2sTA/EF9Ad0
vHZpKAuvGY7X/OPNxljyyn8IbVP8BwJEJMa0NEyMBP4zDkDiILoCc1r39U9jbszG
tt9UHTc5fVE2Jl+93D+oi2uirrad1iHn30G4eigqaEjKqC3t4elGXlpybbSEOIeR
/ZQRCyiExsIvKvsB+TZ6CXXRM4g8c0FbyL+UiXCh8MC5LlBTHrEXZGn0LYHgqQ0O
Mum6VYqF8RtvSXm0f4jDDT5UiJs9HziMBPPuamMr9cbbtIOqxHhBOn1L4cg+ccob
YVnqxsTKMl7J6b8SKebGw2P+oFXaevFgmE0m7fpwLQIDAQABo4IBDjCCAQowCwYD
VR0PBAQDAgWgMAkGA1UdEwQCMAAwEQYJYIZIAYb4QgEBBAQDAgZAMDMGCWCGSAGG
+EIBDQQmFiRPcGVuU1NMIEdlbmVyYXRlZCBTZXJ2ZXIgQ2VydGlmaWNhdGUwHQYD
VR0OBBYEFFM/7V0JB7Nle6tFySRbCXeACpbtMHQGA1UdIwRtMGuAFPSnwMyRRq9k
85HyJ/jIsm+KhzJzoUikRjBEMQswCQYDVQQGEwJERTEPMA0GA1UECAwGSGVzc2Vu
MRQwEgYDVQQKDAtwcml2YWN5aWRlYTEOMAwGA1UEAwwFQ0EwMDGCCQD7yOusg80S
BzATBgNVHSUEDDAKBggrBgEFBQcDATANBgkqhkiG9w0BAQsFAAOCAQEAj5tzr9in
BPnveQtXdfWKYsMYeVl1rxeMpdHZ8G3DDyhCq7UsKDj1rsj+02eR7EmF2KoLjKyS
suMeOS3ZrLu3orB63fz2nDvtmJhoHvbhGdIYBIrjQYf3Y/Iy8YZZ9f73qEjuQdbw
hJAtph/Rf5H+aLDIlG8aWzNbemBpy984dYM+qzbzi+DZH5Qkn6y7F4/PERZowHC/
h2jlLK5KJiiua90scan6HmU3e2SVVBZzo9MVGD6l2p7lEhqu22tbU7CD2Dl/y1aW
S5sQbl+rMuTxVtlfzo6BPzTQIZ2EFVWCX+Bf9iRe9LbpQWENWlG1vGeUANQQWCZp
O2qcJV6kZvISGA==
-----END CERTIFICATE-----
