Certificate:
    Data:
        Version: 3 (0x2)
        Serial Number: 268435668 (0x100000d4)
    Signature Algorithm: sha256WithRSAEncryption
        Issuer: C=DE, ST=Hessen, O=privacyidea, CN=CA001
        Validity
            Not Before: Apr  5 08:38:03 2019 GMT
            Not After : Apr 24 08:38:03 2021 GMT
        Subject: CN=Steve Test/emailAddress=steve@openssl.org
        Subject Public Key Info:
            Public Key Algorithm: rsaEncryption
                Public-Key: (2048 bit)
                Modulus:
                    00:d2:81:89:20:51:48:0f:73:f4:11:32:24:d5:1f:
                    1c:fd:5c:f5:b6:e6:c5:f0:52:81:dc:d2:af:66:4a:
                    7c:93:31:61:5c:af:d1:6d:06:70:03:60:7c:72:0c:
                    88:dd:49:cd:9e:02:6c:d2:5a:d7:53:0f:f3:da:be:
                    69:64:b5:0f:0c:00:e3:b3:50:47:a3:b3:9b:ba:13:
                    50:d6:58:5a:4b:ab:39:e0:11:ca:0a:27:67:03:78:
                    22:66:6d:92:1e:1b:5c:49:ae:e6:6b:d1:8e:3b:9d:
                    06:d3:c6:ac:4d:53:43:10:ab:e8:96:c1:87:82:97:
                    99:8f:20:d3:99:12:37:31:84:e1:8a:ff:29:03:5f:
                    22:90:3e:7f:9b:e0:20:c1:ad:dc:ae:4c:39:1a:31:
                    96:17:02:8c:b2:d9:b4:0d:20:12:9b:7d:86:54:fd:
                    33:fd:c1:2a:62:46:f8:60:96:cf:6e:01:6f:22:df:
                    13:47:e7:97:ec:05:72:23:a3:62:f8:fa:ef:ac:9c:
                    72:f0:37:cb:2f:37:cf:90:a8:27:51:86:c6:d7:78:
                    08:8f:7e:25:a2:15:70:a2:fb:1c:b6:15:5e:a0:97:
                    8b:81:4c:09:28:8a:27:3b:94:bc:71:db:5b:71:37:
                    9a:2b:16:e0:6f:b5:c9:f5:4b:4f:20:ba:65:cf:af:
                    ad:ad
                Exponent: 65537 (0x10001)
        X509v3 extensions:
            X509v3 Key Usage: 
                Digital Signature, Key Encipherment
            X509v3 Basic Constraints: 
                CA:FALSE
            Netscape Cert Type: 
                SSL Server
            Netscape Comment: 
                OpenSSL Generated Server Certificate
            X509v3 Subject Key Identifier: 
                E5:25:6D:3E:AF:0D:DD:3F:4C:F2:45:19:39:D5:14:DB:7E:9C:C0:AD
            X509v3 Authority Key Identifier: 
                keyid:F4:A7:C0:CC:91:46:AF:64:F3:91:F2:27:F8:C8:B2:6F:8A:87:32:73
                DirName:/C=DE/ST=Hessen/O=privacyidea/CN=CA001
                serial:FB:C8:EB:AC:83:CD:12:07

            X509v3 Extended Key Usage: 
                TLS Web Server Authentication
    Signature Algorithm: sha256WithRSAEncryption
         1c:0d:2f:2a:d1:48:97:fa:67:38:cc:a8:ee:a9:91:9a:54:09:
         e8:72:81:c6:cc:19:35:09:64:34:ed:84:53:0b:a2:b0:2e:b1:
         0e:03:1b:9b:e2:56:82:ce:5c:56:e0:21:90:24:7f:30:ad:83:
         3a:f4:17:35:82:da:2c:cd:a5:d4:73:a2:aa:b2:94:ca:89:ce:
         a8:9a:05:c5:96:68:ae:5e:b0:e8:a1:bc:2f:63:ed:5f:6e:bb:
         24:6e:8f:27:28:99:1c:1b:6c:fa:f3:d4:b6:51:4c:c8:20:5c:
         a7:70:ea:ba:b0:06:01:ab:39:55:85:0a:b8:ad:81:76:b8:7c:
         0a:15:5e:1c:c8:19:c3:48:9c:c3:0e:2e:c3:e7:05:a2:22:98:
         a8:fe:de:d5:62:09:48:09:67:cf:a4:5e:c5:cc:b8:64:87:14:
         29:ee:98:b6:dc:3e:d2:f2:78:62:5e:15:4a:8a:2d:c2:6d:77:
         8d:d6:9c:18:20:ee:81:20:ec:a0:e4:2c:d0:67:0f:fd:7b:c5:
         03:57:be:a5:34:79:9c:59:70:d4:5b:97:73:de:46:20:82:e9:
         23:af:2e:40:99:12:ca:21:df:bc:b0:23:67:89:b0:45:20:d9:
         79:05:c7:0c:40:cc:f8:9a:44:42:da:cd:47:d1:91:45:b1:7f:
         ee:8b:44:69
-----BEGIN CERTIFICATE-----
MIIECTCCAvGgAwIBAgIEEAAA1DANBgkqhkiG9w0BAQsFADBEMQswCQYDVQQGEwJE
RTEPMA0GA1UECAwGSGVzc2VuMRQwEgYDVQQKDAtwcml2YWN5aWRlYTEOMAwGA1UE
AwwFQ0EwMDEwHhcNMTkwNDA1MDgzODAzWhcNMjEwNDI0MDgzODAzWjA3MRMwEQYD
VQQDDApTdGV2ZSBUZXN0MSAwHgYJKoZIhvcNAQkBFhFzdGV2ZUBvcGVuc3NsLm9y
ZzCCASIwDQYJKoZIhvcNAQEBBQADggEPADCCAQoCggEBANKBiSBRSA9z9BEyJNUf
HP1c9bbmxfBSgdzSr2ZKfJMxYVyv0W0GcANgfHIMiN1JzZ4CbNJa11MP89q+aWS1
DwwA47NQR6Ozm7oTUNZYWkurOeARygonZwN4ImZtkh4bXEmu5mvRjjudBtPGrE1T
QxCr6JbBh4KXmY8g05kSNzGE4Yr/KQNfIpA+f5vgIMGt3K5MORoxlhcCjLLZtA0g
Ept9hlT9M/3BKmJG+GCWz24BbyLfE0fnl+wFciOjYvj676yccvA3yy83z5CoJ1GG
xtd4CI9+JaIVcKL7HLYVXqCXi4FMCSiKJzuUvHHbW3E3misW4G+1yfVLTyC6Zc+v
ra0CAwEAAaOCAQ4wggEKMAsGA1UdDwQEAwIFoDAJBgNVHRMEAjAAMBEGCWCGSAGG
+EIBAQQEAwIGQDAzBglghkgBhvhCAQ0EJhYkT3BlblNTTCBHZW5lcmF0ZWQgU2Vy
dmVyIENlcnRpZmljYXRlMB0GA1UdDgQWBBTlJW0+rw3dP0zyRRk51RTbfpzArTB0
BgNVHSMEbTBrgBT0p8DMkUavZPOR8if4yLJviocyc6FIpEYwRDELMAkGA1UEBhMC
REUxDzANBgNVBAgMBkhlc3NlbjEUMBIGA1UECgwLcHJpdmFjeWlkZWExDjAMBgNV
BAMMBUNBMDAxggkA+8jrrIPNEgcwEwYDVR0lBAwwCgYIKwYBBQUHAwEwDQYJKoZI
hvcNAQELBQADggEBABwNLyrRSJf6ZzjMqO6pkZpUCehygcbMGTUJZDTthFMLorAu
sQ4DG5viVoLOXFbgIZAkfzCtgzr0FzWC2izNpdRzoqqylMqJzqiaBcWWaK5esOih
vC9j7V9uuyRujycomRwbbPrz1LZRTMggXKdw6rqwBgGrOVWFCritgXa4fAoVXhzI
GcNInMMOLsPnBaIimKj+3tViCUgJZ8+kXsXMuGSHFCnumLbcPtLyeGJeFUqKLcJt
d43WnBgg7oEg7KDkLNBnD/17xQNXvqU0eZxZcNRbl3PeRiCC6SOvLkCZEsoh37yw
I2eJsEUg2XkFxwxAzPiaRELazUfRkUWxf+6LRGk=
-----END CERTIFICATE-----
