Certificate:
    Data:
        Version: 3 (0x2)
        Serial Number: 268435679 (0x100000df)
    Signature Algorithm: sha256WithRSAEncryption
        Issuer: C=DE, ST=Hessen, O=privacyidea, CN=CA001
        Validity
            Not Before: Mar 20 08:55:00 2019 GMT
            Not After : Mar 19 08:55:00 2020 GMT
        Subject: CN=selfservice,CN=user,O=realm1/emailAddress=meine
        Subject Public Key Info:
            Public Key Algorithm: rsaEncryption
                Public-Key: (2048 bit)
                Modulus:
                    00:cf:3c:d4:33:0e:12:c4:e6:da:cd:b6:56:a1:1c:
                    26:bb:26:1c:8a:4a:73:a8:58:8a:b6:1e:b3:8b:99:
                    d2:1d:07:c2:92:89:79:c0:69:d8:c8:df:28:61:98:
                    1e:b3:fe:ae:2b:bd:78:a9:f7:6e:47:dc:a3:a0:16:
                    8c:85:02:c1:4e:92:fd:72:6e:f0:c8:03:29:9b:b8:
                    00:6e:c0:83:95:c8:34:20:36:9c:b3:e5:e4:e6:76:
                    73:a3:1a:ad:40:96:e0:53:54:00:ec:76:79:9a:c6:
                    0d:7e:b6:bd:29:ec:83:f3:cb:89:a4:cb:6c:00:ba:
                    0c:c5:78:0f:ff:69:b8:94:f4:04:70:43:3f:d8:9e:
                    d7:a7:fb:5d:ce:75:8e:da:e7:c4:07:b1:9d:de:6f:
                    88:4b:b6:4d:9a:cf:f9:bc:fa:9f:cd:32:6d:f6:3a:
                    0b:0d:23:42:78:ec:97:42:bf:0e:4d:60:56:e1:d3:
                    02:f2:19:cb:84:57:90:e5:70:a1:a2:83:35:86:e2:
                    da:86:9f:f9:8a:c4:79:b3:52:28:da:cb:bb:34:ca:
                    d3:da:91:4a:cf:8d:76:a2:b2:6b:9b:f9:96:fd:09:
                    2a:da:11:23:4d:f0:cb:d6:b2:b1:0e:12:6c:9a:19:
                    65:98:87:ca:e4:ee:24:ce:44:ac:90:8f:9d:1b:c5:
                    2a:9d
                Exponent: 65537 (0x10001)
        X509v3 extensions:
            X509v3 Key Usage: 
                Digital Signature, Key Encipherment
            X509v3 Basic Constraints: 
                CA:FALSE
            Netscape Cert Type: 
                SSL Server
            Netscape Comment: 
                OpenSSL Generated Server Certificate
            X509v3 Subject Key Identifier: 
                4D:07:90:AD:FF:1D:0D:E7:1A:DD:D6:2E:FA:BA:34:CB:AA:1F:24:C6
            X509v3 Authority Key Identifier: 
                keyid:F4:A7:C0:CC:91:46:AF:64:F3:91:F2:27:F8:C8:B2:6F:8A:87:32:73
                DirName:/C=DE/ST=Hessen/O=privacyidea/CN=CA001
                serial:FB:C8:EB:AC:83:CD:12:07

            X509v3 Extended Key Usage: 
                TLS Web Server Authentication
    Signature Algorithm: sha256WithRSAEncryption
         01:5c:fd:8c:b0:61:e6:b3:81:7d:5d:d1:58:0f:a8:b1:40:63:
         16:c4:c8:68:1d:d5:b6:04:6c:00:fc:bc:8e:2e:b2:c2:96:d1:
         40:80:b7:9c:e5:97:52:cc:ee:ee:de:c0:a8:35:e3:c9:12:a0:
         b4:2d:90:d6:83:44:78:be:f5:fa:fc:14:49:89:b3:fc:5a:9b:
         a3:d0:4a:00:e4:27:78:ae:b3:8b:bf:c7:39:01:14:c3:61:08:
         7a:b1:ff:e7:0e:68:38:6d:56:9f:fc:78:86:36:b1:95:2a:37:
         a3:2c:81:12:ef:de:69:fc:aa:be:b7:1c:ac:e5:9e:66:1e:bd:
         ce:76:47:91:58:92:6d:29:69:ac:a7:3c:8a:6d:86:64:c6:a9:
         ba:d1:43:91:7a:49:f6:75:77:b8:14:18:b1:47:e9:64:a8:40:
         d4:6e:dd:16:c2:fd:f7:87:43:6c:5a:28:1e:13:e3:eb:1c:a8:
         aa:f8:9c:24:37:a8:f2:92:4e:98:8a:68:86:cc:a5:97:8d:06:
         c3:98:5d:fa:49:e8:9a:19:80:21:a0:bd:03:07:14:2d:0a:d7:
         2e:61:c2:c9:9a:ec:fe:2d:bd:e2:17:88:16:cd:c4:67:0c:a3:
         fd:aa:40:c7:73:fa:b2:b6:15:8d:2f:46:2b:5e:b2:81:9e:5f:
         6c:c0:65:5f
-----BEGIN CERTIFICATE-----
MIIEDzCCAvegAwIBAgIEEAAA3zANBgkqhkiG9w0BAQsFADBEMQswCQYDVQQGEwJE
RTEPMA0GA1UECAwGSGVzc2VuMRQwEgYDVQQKDAtwcml2YWN5aWRlYTEOMAwGA1UE
AwwFQ0EwMDEwHhcNMTkwMzIwMDg1NTAwWhcNMjAwMzE5MDg1NTAwWjA9MSUwIwYD
VQQDDBxzZWxmc2VydmljZSxDTj11c2VyLE89cmVhbG0xMRQwEgYJKoZIhvcNAQkB
FgVtZWluZTCCASIwDQYJKoZIhvcNAQEBBQADggEPADCCAQoCggEBAM881DMOEsTm
2s22VqEcJrsmHIpKc6hYirYes4uZ0h0HwpKJecBp2MjfKGGYHrP+riu9eKn3bkfc
o6AWjIUCwU6S/XJu8MgDKZu4AG7Ag5XINCA2nLPl5OZ2c6MarUCW4FNUAOx2eZrG
DX62vSnsg/PLiaTLbAC6DMV4D/9puJT0BHBDP9ie16f7Xc51jtrnxAexnd5viEu2
TZrP+bz6n80ybfY6Cw0jQnjsl0K/Dk1gVuHTAvIZy4RXkOVwoaKDNYbi2oaf+YrE
ebNSKNrLuzTK09qRSs+NdqKya5v5lv0JKtoRI03wy9aysQ4SbJoZZZiHyuTuJM5E
rJCPnRvFKp0CAwEAAaOCAQ4wggEKMAsGA1UdDwQEAwIFoDAJBgNVHRMEAjAAMBEG
CWCGSAGG+EIBAQQEAwIGQDAzBglghkgBhvhCAQ0EJhYkT3BlblNTTCBHZW5lcmF0
ZWQgU2VydmVyIENlcnRpZmljYXRlMB0GA1UdDgQWBBRNB5Ct/x0N5xrd1i76ujTL
qh8kxjB0BgNVHSMEbTBrgBT0p8DMkUavZPOR8if4yLJviocyc6FIpEYwRDELMAkG
A1UEBhMCREUxDzANBgNVBAgMBkhlc3NlbjEUMBIGA1UECgwLcHJpdmFjeWlkZWEx
DjAMBgNVBAMMBUNBMDAxggkA+8jrrIPNEgcwEwYDVR0lBAwwCgYIKwYBBQUHAwEw
DQYJKoZIhvcNAQELBQADggEBAAFc/YywYeazgX1d0VgPqLFAYxbEyGgd1bYEbAD8
vI4ussKW0UCAt5zll1LM7u7ewKg148kSoLQtkNaDRHi+9fr8FEmJs/xam6PQSgDk
J3ius4u/xzkBFMNhCHqx/+cOaDhtVp/8eIY2sZUqN6MsgRLv3mn8qr63HKzlnmYe
vc52R5FYkm0paaynPIpthmTGqbrRQ5F6SfZ1d7gUGLFH6WSoQNRu3RbC/feHQ2xa
KB4T4+scqKr4nCQ3qPKSTpiKaIbMpZeNBsOYXfpJ6JoZgCGgvQMHFC0K1y5hwsma
7P4tveIXiBbNxGcMo/2qQMdz+rK2FY0vRitesoGeX2zAZV8=
-----END CERTIFICATE-----
