Certificate:
    Data:
        Version: 3 (0x2)
        Serial Number: 268435685 (0x100000e5)
    Signature Algorithm: sha256WithRSAEncryption
        Issuer: C=DE, ST=Hessen, O=privacyidea, CN=CA001
        Validity
            Not Before: Mar 13 16:35:44 2019 GMT
            Not After : Mar 12 16:35:44 2020 GMT
        Subject: CN=Steve Test/emailAddress=steve@openssl.org
        Subject Public Key Info:
            Public Key Algorithm: rsaEncryption
                Public-Key: (2048 bit)
                Modulus:
                    00:d2:81:89:20:51:48:0f:73:f4:11:32:24:d5:1f:
                    1c:fd:5c:f5:b6:e6:c5:f0:52:81:dc:d2:af:66:4a:
                    7c:93:31:61:5c:af:d1:6d:06:70:03:60:7c:72:0c:
                    88:dd:49:cd:9e:02:6c:d2:5a:d7:53:0f:f3:da:be:
                    69:64:b5:0f:0c:00:e3:b3:50:47:a3:b3:9b:ba:13:
                    50:d6:58:5a:4b:ab:39:e0:11:ca:0a:27:67:03:78:
                    22:66:6d:92:1e:1b:5c:49:ae:e6:6b:d1:8e:3b:9d:
                    06:d3:c6:ac:4d:53:43:10:ab:e8:96:c1:87:82:97:
                    99:8f:20:d3:99:12:37:31:84:e1:8a:ff:29:03:5f:
                    22:90:3e:7f:9b:e0:20:c1:ad:dc:ae:4c:39:1a:31:
                    96:17:02:8c:b2:d9:b4:0d:20:12:9b:7d:86:54:fd:
                    33:fd:c1:2a:62:46:f8:60:96:cf:6e:01:6f:22:df:
                    13:47:e7:97:ec:05:72:23:a3:62:f8:fa:ef:ac:9c:
                    72:f0:37:cb:2f:37:cf:90:a8:27:51:86:c6:d7:78:
                    08:8f:7e:25:a2:15:70:a2:fb:1c:b6:15:5e:a0:97:
                    8b:81:4c:09:28:8a:27:3b:94:bc:71:db:5b:71:37:
                    9a:2b:16:e0:6f:b5:c9:f5:4b:4f:20:ba:65:cf:af:
                    ad:ad
                Exponent: 65537 (0x10001)
        X509v3 extensions:
            X509v3 Key Usage: 
                Digital Signature, Key Encipherment
            X509v3 Basic Constraints: 
                CA:FALSE
            Netscape Cert Type: 
                SSL Server
            Netscape Comment: 
                OpenSSL Generated Server Certificate
            X509v3 Subject Key Identifier: 
                E5:25:6D:3E:AF:0D:DD:3F:4C:F2:45:19:39:D5:14:DB:7E:9C:C0:AD
            X509v3 Authority Key Identifier: 
                keyid:F4:A7:C0:CC:91:46:AF:64:F3:91:F2:27:F8:C8:B2:6F:8A:87:32:73
                DirName:/C=DE/ST=Hessen/O=privacyidea/CN=CA001
                serial:FB:C8:EB:AC:83:CD:12:07

            X509v3 Extended Key Usage: 
                TLS Web Server Authentication
    Signature Algorithm: sha256WithRSAEncryption
         18:f5:41:88:20:63:f9:2c:81:d9:45:d6:d7:f2:3e:ca:09:57:
         7a:22:a1:6e:84:ac:73:3b:54:e1:48:40:6b:7d:b5:bb:cd:fc:
         c1:d9:b1:58:c0:a5:49:cb:7d:e4:ea:2c:bf:23:52:fb:14:4b:
         a2:d3:ee:01:aa:02:e3:62:36:4f:82:48:f8:7b:e7:8b:18:78:
         ea:07:ec:3d:e2:e1:da:7f:2c:a9:19:d7:17:13:ab:8c:e9:84:
         d1:b3:a0:0f:c2:8f:e1:ed:3f:2c:ff:6e:ab:7b:b9:eb:90:6b:
         84:49:88:dd:2f:d2:3d:44:8f:ba:ce:8b:ed:97:98:d5:af:57:
         82:7d:99:f2:4c:64:f6:b2:ce:14:6c:de:9d:5e:35:c2:57:1e:
         93:53:d2:72:e8:47:5c:4e:d2:c4:f8:2c:e7:a6:ce:ea:91:36:
         1b:33:45:fc:a3:b8:a4:79:cd:50:16:67:98:3c:55:4a:c3:fe:
         95:17:a5:76:70:20:a1:61:ac:74:ce:6c:d5:de:d3:56:65:e8:
         8b:0b:db:32:d1:96:33:7b:eb:16:10:66:b0:94:99:1b:cb:10:
         83:34:f4:3f:ec:8d:3b:87:9f:bc:cc:62:35:02:5a:e1:cc:bd:
         78:a8:4b:a0:53:44:24:d1:2c:17:dd:cd:f0:1d:80:d7:6c:ac:
         7c:31:ce:ac
-----BEGIN CERTIFICATE-----
MIIECTCCAvGgAwIBAgIEEAAA5TANBgkqhkiG9w0BAQsFADBEMQswCQYDVQQGEwJE
RTEPMA0GA1UECAwGSGVzc2VuMRQwEgYDVQQKDAtwcml2YWN5aWRlYTEOMAwGA1UE
AwwFQ0EwMDEwHhcNMTkwMzEzMTYzNTQ0WhcNMjAwMzEyMTYzNTQ0WjA3MRMwEQYD
VQQDDApTdGV2ZSBUZXN0MSAwHgYJKoZIhvcNAQkBFhFzdGV2ZUBvcGVuc3NsLm9y
ZzCCASIwDQYJKoZIhvcNAQEBBQADggEPADCCAQoCggEBANKBiSBRSA9z9BEyJNUf
HP1c9bbmxfBSgdzSr2ZKfJMxYVyv0W0GcANgfHIMiN1JzZ4CbNJa11MP89q+aWS1
DwwA47NQR6Ozm7oTUNZYWkurOeARygonZwN4ImZtkh4bXEmu5mvRjjudBtPGrE1T
QxCr6JbBh4KXmY8g05kSNzGE4Yr/KQNfIpA+f5vgIMGt3K5MORoxlhcCjLLZtA0g
Ept9hlT9M/3BKmJG+GCWz24BbyLfE0fnl+wFciOjYvj676yccvA3yy83z5CoJ1GG
xtd4CI9+JaIVcKL7HLYVXqCXi4FMCSiKJzuUvHHbW3E3misW4G+1yfVLTyC6Zc+v
ra0CAwEAAaOCAQ4wggEKMAsGA1UdDwQEAwIFoDAJBgNVHRMEAjAAMBEGCWCGSAGG
+EIBAQQEAwIGQDAzBglghkgBhvhCAQ0EJhYkT3BlblNTTCBHZW5lcmF0ZWQgU2Vy
dmVyIENlcnRpZmljYXRlMB0GA1UdDgQWBBTlJW0+rw3dP0zyRRk51RTbfpzArTB0
BgNVHSMEbTBrgBT0p8DMkUavZPOR8if4yLJviocyc6FIpEYwRDELMAkGA1UEBhMC
REUxDzANBgNVBAgMBkhlc3NlbjEUMBIGA1UECgwLcHJpdmFjeWlkZWExDjAMBgNV
BAMMBUNBMDAxggkA+8jrrIPNEgcwEwYDVR0lBAwwCgYIKwYBBQUHAwEwDQYJKoZI
hvcNAQELBQADggEBABj1QYggY/ksgdlF1tfyPsoJV3oioW6ErHM7VOFIQGt9tbvN
/MHZsVjApUnLfeTqLL8jUvsUS6LT7gGqAuNiNk+CSPh754sYeOoH7D3i4dp/LKkZ
1xcTq4zphNGzoA/Cj+HtPyz/bqt7ueuQa4RJiN0v0j1Ej7rOi+2XmNWvV4J9mfJM
ZPayzhRs3p1eNcJXHpNT0nLoR1xO0sT4LOemzuqRNhszRfyjuKR5zVAWZ5g8VUrD
/pUXpXZwIKFhrHTObNXe01Zl6IsL2zLRljN76xYQZrCUmRvLEIM09D/sjTuHn7zM
YjUCWuHMvXioS6BTRCTRLBfdzfAdgNdsrHwxzqw=
-----END CERTIFICATE-----
