Certificate:
    Data:
        Version: 3 (0x2)
        Serial Number: 268435684 (0x100000e4)
    Signature Algorithm: sha256WithRSAEncryption
        Issuer: C=DE, ST=Hessen, O=privacyidea, CN=CA001
        Validity
            Not Before: Mar 13 16:35:44 2019 GMT
            Not After : Mar 12 16:35:44 2020 GMT
        Subject: C=DE, ST=Hessen, O=privacyidea, CN=usercert
        Subject Public Key Info:
            Public Key Algorithm: rsaEncryption
                Public-Key: (2048 bit)
                Modulus:
                    00:dc:2f:d1:5f:29:97:d4:7c:c3:53:c8:30:bd:4b:
                    67:70:2c:24:6b:b8:5e:eb:21:7a:48:12:56:7c:81:
                    5c:48:75:b6:68:eb:f6:f2:98:4e:50:51:d1:7f:6c:
                    73:f3:0a:a7:ae:be:48:5e:e5:d6:e1:d9:2a:7c:32:
                    6e:4e:fd:08:f6:5a:54:49:23:73:c3:b9:07:18:d1:
                    ef:b3:ac:f8:8a:dc:94:96:a4:90:3a:8e:74:df:e6:
                    0d:37:1b:bd:5b:b7:25:1a:56:39:da:6f:91:aa:5e:
                    1c:74:f3:f9:7c:14:01:83:12:65:76:c7:bb:fe:36:
                    5b:95:e9:72:65:83:ed:3e:98:30:71:fa:87:dd:a3:
                    36:5a:30:03:2e:26:e0:61:d1:bf:02:3f:b6:06:1f:
                    4a:89:28:1c:5c:a2:ff:4e:be:94:e6:8c:e0:da:82:
                    f1:9d:29:32:48:30:73:b4:04:f6:42:1e:be:f7:e2:
                    32:32:27:3c:9d:89:2f:70:3e:85:9a:6f:5c:c5:09:
                    c0:8c:32:2f:72:22:c9:d2:95:1f:b6:ac:72:60:72:
                    b7:82:4d:6b:ce:5b:e3:00:d0:d2:2f:58:c6:e0:10:
                    e5:51:ca:4d:3b:2e:e6:7e:ab:84:d6:56:f1:93:35:
                    a0:93:64:26:81:75:2f:91:b5:16:06:38:0b:db:cc:
                    2d:07
                Exponent: 65537 (0x10001)
        X509v3 extensions:
            X509v3 Key Usage: 
                Digital Signature, Key Encipherment
            X509v3 Basic Constraints: 
                CA:FALSE
            Netscape Cert Type: 
                SSL Server
            Netscape Comment: 
                OpenSSL Generated Server Certificate
            X509v3 Subject Key Identifier: 
                FC:14:D1:F0:4B:8D:00:90:F2:F5:B8:71:9E:4E:97:C3:92:54:AD:0B
            X509v3 Authority Key Identifier: 
                keyid:F4:A7:C0:CC:91:46:AF:64:F3:91:F2:27:F8:C8:B2:6F:8A:87:32:73
                DirName:/C=DE/ST=Hessen/O=privacyidea/CN=CA001
                serial:FB:C8:EB:AC:83:CD:12:07

            X509v3 Extended Key Usage: 
                TLS Web Server Authentication
    Signature Algorithm: sha256WithRSAEncryption
         49:79:80:b6:72:8c:f9:b9:a9:cf:7c:c7:35:d2:3d:e4:0b:f5:
         1d:5b:76:92:a4:fe:c7:03:01:eb:dd:06:1c:b8:da:2c:d7:95:
         1f:f0:03:8c:73:2d:e3:83:3a:86:18:9b:9a:d9:24:3b:6e:08:
         40:ee:b2:b8:d5:3a:be:fb:fe:c3:a4:0b:8b:8c:19:e1:6a:09:
         94:28:c2:0a:80:e9:c3:1f:b7:e5:23:80:0e:4e:2d:e9:35:ff:
         5c:8b:c8:f1:70:c9:10:ce:ac:bd:f8:7f:a7:1d:2e:7a:9f:8f:
         46:2a:65:2c:81:74:da:00:7a:32:0a:69:67:c7:96:cd:0f:5b:
         80:9a:5a:83:a8:86:69:80:a6:e8:ea:0a:9a:27:0b:3c:e8:fa:
         6d:d9:d5:0f:13:a0:a9:ba:5f:42:37:2f:a9:6a:a2:95:e7:fc:
         2f:9d:3e:6b:e7:d6:a0:3d:db:63:ab:ef:6b:e0:eb:02:9d:40:
         68:8f:89:1c:39:cc:f2:76:1a:66:34:61:53:7b:a0:d0:52:c3:
         45:cd:c7:cc:3e:08:39:9d:c4:6e:7e:fb:b5:87:c3:48:b4:a9:
         ff:1b:fc:af:79:91:05:c7:8c:f8:ca:65:1a:40:9a:3e:14:2b:
         7b:cd:59:20:e4:ff:e1:05:28:f0:af:2e:b7:7f:7c:da:34:2c:
         69:a5:88:64
-----BEGIN CERTIFICATE-----
MIIEGTCCAwGgAwIBAgIEEAAA5DANBgkqhkiG9w0BAQsFADBEMQswCQYDVQQGEwJE
RTEPMA0GA1UECAwGSGVzc2VuMRQwEgYDVQQKDAtwcml2YWN5aWRlYTEOMAwGA1UE
AwwFQ0EwMDEwHhcNMTkwMzEzMTYzNTQ0WhcNMjAwMzEyMTYzNTQ0WjBHMQswCQYD
VQQGEwJERTEPMA0GA1UECAwGSGVzc2VuMRQwEgYDVQQKDAtwcml2YWN5aWRlYTER
MA8GA1UEAwwIdXNlcmNlcnQwggEiMA0GCSqGSIb3DQEBAQUAA4IBDwAwggEKAoIB
AQDcL9FfKZfUfMNTyDC9S2dwLCRruF7rIXpIElZ8gVxIdbZo6/bymE5QUdF/bHPz
Cqeuvkhe5dbh2Sp8Mm5O/Qj2WlRJI3PDuQcY0e+zrPiK3JSWpJA6jnTf5g03G71b
tyUaVjnab5GqXhx08/l8FAGDEmV2x7v+NluV6XJlg+0+mDBx+ofdozZaMAMuJuBh
0b8CP7YGH0qJKBxcov9OvpTmjODagvGdKTJIMHO0BPZCHr734jIyJzydiS9wPoWa
b1zFCcCMMi9yIsnSlR+2rHJgcreCTWvOW+MA0NIvWMbgEOVRyk07LuZ+q4TWVvGT
NaCTZCaBdS+RtRYGOAvbzC0HAgMBAAGjggEOMIIBCjALBgNVHQ8EBAMCBaAwCQYD
VR0TBAIwADARBglghkgBhvhCAQEEBAMCBkAwMwYJYIZIAYb4QgENBCYWJE9wZW5T
U0wgR2VuZXJhdGVkIFNlcnZlciBDZXJ0aWZpY2F0ZTAdBgNVHQ4EFgQU/BTR8EuN
AJDy9bhxnk6Xw5JUrQswdAYDVR0jBG0wa4AU9KfAzJFGr2TzkfIn+Miyb4qHMnOh
SKRGMEQxCzAJBgNVBAYTAkRFMQ8wDQYDVQQIDAZIZXNzZW4xFDASBgNVBAoMC3By
aXZhY3lpZGVhMQ4wDAYDVQQDDAVDQTAwMYIJAPvI66yDzRIHMBMGA1UdJQQMMAoG
CCsGAQUFBwMBMA0GCSqGSIb3DQEBCwUAA4IBAQBJeYC2coz5uanPfMc10j3kC/Ud
W3aSpP7HAwHr3QYcuNos15Uf8AOMcy3jgzqGGJua2SQ7bghA7rK41Tq++/7DpAuL
jBnhagmUKMIKgOnDH7flI4AOTi3pNf9ci8jxcMkQzqy9+H+nHS56n49GKmUsgXTa
AHoyCmlnx5bND1uAmlqDqIZpgKbo6gqaJws86Ppt2dUPE6Cpul9CNy+paqKV5/wv
nT5r59agPdtjq+9r4OsCnUBoj4kcOczydhpmNGFTe6DQUsNFzcfMPgg5ncRufvu1
h8NItKn/G/yveZEFx4z4ymUaQJo+FCt7zVkg5P/hBSjwry63f3zaNCxppYhk
-----END CERTIFICATE-----
