Certificate:
    Data:
        Version: 3 (0x2)
        Serial Number: 268435689 (0x100000e9)
    Signature Algorithm: sha256WithRSAEncryption
        Issuer: C=DE, ST=Hessen, O=privacyidea, CN=CA001
        Validity
            Not Before: Mar 13 16:39:17 2019 GMT
            Not After : Mar 12 16:39:17 2020 GMT
        Subject: CN=selfservice,CN=user,O=realm1/emailAddress=meine
        Subject Public Key Info:
            Public Key Algorithm: rsaEncryption
                Public-Key: (2048 bit)
                Modulus:
                    00:cf:3c:d4:33:0e:12:c4:e6:da:cd:b6:56:a1:1c:
                    26:bb:26:1c:8a:4a:73:a8:58:8a:b6:1e:b3:8b:99:
                    d2:1d:07:c2:92:89:79:c0:69:d8:c8:df:28:61:98:
                    1e:b3:fe:ae:2b:bd:78:a9:f7:6e:47:dc:a3:a0:16:
                    8c:85:02:c1:4e:92:fd:72:6e:f0:c8:03:29:9b:b8:
                    00:6e:c0:83:95:c8:34:20:36:9c:b3:e5:e4:e6:76:
                    73:a3:1a:ad:40:96:e0:53:54:00:ec:76:79:9a:c6:
                    0d:7e:b6:bd:29:ec:83:f3:cb:89:a4:cb:6c:00:ba:
                    0c:c5:78:0f:ff:69:b8:94:f4:04:70:43:3f:d8:9e:
                    d7:a7:fb:5d:ce:75:8e:da:e7:c4:07:b1:9d:de:6f:
                    88:4b:b6:4d:9a:cf:f9:bc:fa:9f:cd:32:6d:f6:3a:
                    0b:0d:23:42:78:ec:97:42:bf:0e:4d:60:56:e1:d3:
                    02:f2:19:cb:84:57:90:e5:70:a1:a2:83:35:86:e2:
                    da:86:9f:f9:8a:c4:79:b3:52:28:da:cb:bb:34:ca:
                    d3:da:91:4a:cf:8d:76:a2:b2:6b:9b:f9:96:fd:09:
                    2a:da:11:23:4d:f0:cb:d6:b2:b1:0e:12:6c:9a:19:
                    65:98:87:ca:e4:ee:24:ce:44:ac:90:8f:9d:1b:c5:
                    2a:9d
                Exponent: 65537 (0x10001)
        X509v3 extensions:
            X509v3 Key Usage: 
                Digital Signature, Key Encipherment
            X509v3 Basic Constraints: 
                CA:FALSE
            Netscape Cert Type: 
                SSL Server
            Netscape Comment: 
                OpenSSL Generated Server Certificate
            X509v3 Subject Key Identifier: 
                4D:07:90:AD:FF:1D:0D:E7:1A:DD:D6:2E:FA:BA:34:CB:AA:1F:24:C6
            X509v3 Authority Key Identifier: 
                keyid:F4:A7:C0:CC:91:46:AF:64:F3:91:F2:27:F8:C8:B2:6F:8A:87:32:73
                DirName:/C=DE/ST=Hessen/O=privacyidea/CN=CA001
                serial:FB:C8:EB:AC:83:CD:12:07

            X509v3 Extended Key Usage: 
                TLS Web Server Authentication
    Signature Algorithm: sha256WithRSAEncryption
         34:21:d1:60:9d:59:27:dc:e5:1e:7f:cf:31:77:7e:0b:7e:98:
         78:ed:da:28:06:2c:b3:76:e0:2f:2c:88:b4:09:83:d6:71:df:
         2b:b4:89:63:c3:eb:d5:ad:5a:8f:74:7d:d0:70:1b:a3:78:43:
         73:35:08:88:71:3d:99:76:92:aa:6c:13:ee:e2:66:f9:13:b9:
         d7:8e:c4:d2:0a:8a:6a:66:6a:84:a5:45:84:d3:e3:81:d6:d9:
         47:7c:da:27:2b:2d:f7:00:c3:91:14:57:a4:34:36:c2:65:13:
         07:69:fd:db:26:ba:48:79:45:ae:ee:22:4c:14:c8:58:0a:e0:
         02:5e:7b:d7:86:4b:87:4a:a5:0e:5a:b9:82:b8:b3:d2:bb:c7:
         aa:9a:5c:84:8f:f6:f5:54:b9:99:cb:4b:b3:af:52:e9:c8:4f:
         4a:3e:66:70:f3:d0:d1:c7:59:aa:3c:08:69:5d:f4:dc:03:e9:
         45:1f:2f:6e:a9:28:db:49:03:79:6c:22:b5:c9:3f:b5:af:48:
         b4:25:5b:ac:5e:66:fb:51:f9:d2:12:8a:0d:af:02:69:6c:36:
         59:d7:ec:28:e8:a6:c0:3a:bd:59:f8:9d:58:9e:ab:b3:e5:90:
         75:b2:c9:f1:1a:25:97:9c:b3:9c:b0:02:ab:e5:df:b8:25:f9:
         cf:f3:d0:0b
-----BEGIN CERTIFICATE-----
MIIEDzCCAvegAwIBAgIEEAAA6TANBgkqhkiG9w0BAQsFADBEMQswCQYDVQQGEwJE
RTEPMA0GA1UECAwGSGVzc2VuMRQwEgYDVQQKDAtwcml2YWN5aWRlYTEOMAwGA1UE
AwwFQ0EwMDEwHhcNMTkwMzEzMTYzOTE3WhcNMjAwMzEyMTYzOTE3WjA9MSUwIwYD
VQQDDBxzZWxmc2VydmljZSxDTj11c2VyLE89cmVhbG0xMRQwEgYJKoZIhvcNAQkB
FgVtZWluZTCCASIwDQYJKoZIhvcNAQEBBQADggEPADCCAQoCggEBAM881DMOEsTm
2s22VqEcJrsmHIpKc6hYirYes4uZ0h0HwpKJecBp2MjfKGGYHrP+riu9eKn3bkfc
o6AWjIUCwU6S/XJu8MgDKZu4AG7Ag5XINCA2nLPl5OZ2c6MarUCW4FNUAOx2eZrG
DX62vSnsg/PLiaTLbAC6DMV4D/9puJT0BHBDP9ie16f7Xc51jtrnxAexnd5viEu2
TZrP+bz6n80ybfY6Cw0jQnjsl0K/Dk1gVuHTAvIZy4RXkOVwoaKDNYbi2oaf+YrE
ebNSKNrLuzTK09qRSs+NdqKya5v5lv0JKtoRI03wy9aysQ4SbJoZZZiHyuTuJM5E
rJCPnRvFKp0CAwEAAaOCAQ4wggEKMAsGA1UdDwQEAwIFoDAJBgNVHRMEAjAAMBEG
CWCGSAGG+EIBAQQEAwIGQDAzBglghkgBhvhCAQ0EJhYkT3BlblNTTCBHZW5lcmF0
ZWQgU2VydmVyIENlcnRpZmljYXRlMB0GA1UdDgQWBBRNB5Ct/x0N5xrd1i76ujTL
qh8kxjB0BgNVHSMEbTBrgBT0p8DMkUavZPOR8if4yLJviocyc6FIpEYwRDELMAkG
A1UEBhMCREUxDzANBgNVBAgMBkhlc3NlbjEUMBIGA1UECgwLcHJpdmFjeWlkZWEx
DjAMBgNVBAMMBUNBMDAxggkA+8jrrIPNEgcwEwYDVR0lBAwwCgYIKwYBBQUHAwEw
DQYJKoZIhvcNAQELBQADggEBADQh0WCdWSfc5R5/zzF3fgt+mHjt2igGLLN24C8s
iLQJg9Zx3yu0iWPD69WtWo90fdBwG6N4Q3M1CIhxPZl2kqpsE+7iZvkTudeOxNIK
impmaoSlRYTT44HW2Ud82icrLfcAw5EUV6Q0NsJlEwdp/dsmukh5Ra7uIkwUyFgK
4AJee9eGS4dKpQ5auYK4s9K7x6qaXISP9vVUuZnLS7OvUunIT0o+ZnDz0NHHWao8
CGld9NwD6UUfL26pKNtJA3lsIrXJP7WvSLQlW6xeZvtR+dISig2vAmlsNlnX7Cjo
psA6vVn4nVieq7PlkHWyyfEaJZecs5ywAqvl37gl+c/z0As=
-----END CERTIFICATE-----
