Certificate:
    Data:
        Version: 3 (0x2)
        Serial Number: 268435680 (0x100000e0)
    Signature Algorithm: sha256WithRSAEncryption
        Issuer: C=DE, ST=Hessen, O=privacyidea, CN=CA001
        Validity
            Not Before: Mar 13 16:23:47 2019 GMT
            Not After : Mar 12 16:23:47 2020 GMT
        Subject: C=DE, ST=Hessen, O=privacyidea, CN=requester.localdomain
        Subject Public Key Info:
            Public Key Algorithm: rsaEncryption
                Public-Key: (2048 bit)
                Modulus:
                    00:cd:be:14:4f:fa:ce:01:3f:42:22:1b:1d:9c:af:
                    dd:92:d2:7f:db:6c:b7:3e:39:43:43:6b:13:03:f1:
                    05:f4:07:74:bc:76:69:28:0b:af:19:8e:d7:fc:e3:
                    cd:c6:58:f2:ca:7f:08:6d:53:fc:07:02:44:24:c6:
                    b4:34:4c:8c:04:fe:33:0e:40:e2:20:ba:02:73:5a:
                    f7:f5:4f:63:6e:cc:c6:b6:df:54:1d:37:39:7d:51:
                    36:26:5f:bd:dc:3f:a8:8b:6b:a2:ae:b6:9d:d6:21:
                    e7:df:41:b8:7a:28:2a:68:48:ca:a8:2d:ed:e1:e9:
                    46:5e:5a:72:6d:b4:84:38:87:91:fd:94:11:0b:28:
                    84:c6:c2:2f:2a:fb:01:f9:36:7a:09:75:d1:33:88:
                    3c:73:41:5b:c8:bf:94:89:70:a1:f0:c0:b9:2e:50:
                    53:1e:b1:17:64:69:f4:2d:81:e0:a9:0d:0e:32:e9:
                    ba:55:8a:85:f1:1b:6f:49:79:b4:7f:88:c3:0d:3e:
                    54:88:9b:3d:1f:38:8c:04:f3:ee:6a:63:2b:f5:c6:
                    db:b4:83:aa:c4:78:41:3a:7d:4b:e1:c8:3e:71:ca:
                    1b:61:59:ea:c6:c4:ca:32:5e:c9:e9:bf:12:29:e6:
                    c6:c3:63:fe:a0:55:da:7a:f1:60:98:4d:26:ed:fa:
                    70:2d
                Exponent: 65537 (0x10001)
        X509v3 extensions:
            X509v3 Key Usage: 
                Digital Signature, Key Encipherment
            X509v3 Basic Constraints: 
                CA:FALSE
            Netscape Cert Type: 
                SSL Server
            Netscape Comment: 
                OpenSSL Generated Server Certificate
            X509v3 Subject Key Identifier: 
                53:3F:ED:5D:09:07:B3:65:7B:AB:45:C9:24:5B:09:77:80:0A:96:ED
            X509v3 Authority Key Identifier: 
                keyid:F4:A7:C0:CC:91:46:AF:64:F3:91:F2:27:F8:C8:B2:6F:8A:87:32:73
                DirName:/C=DE/ST=Hessen/O=privacyidea/CN=CA001
                serial:FB:C8:EB:AC:83:CD:12:07

            X509v3 Extended Key Usage: 
                TLS Web Server Authentication
    Signature Algorithm: sha256WithRSAEncryption
         0f:01:32:e2:65:2c:df:1a:43:b0:94:0f:21:01:04:6d:ce:61:
         54:b4:df:ea:f8:95:3c:b5:1f:f4:63:5a:9d:2c:66:c7:63:54:
         3e:9b:0d:81:04:1c:06:86:8b:d4:a0:85:aa:14:fa:d9:34:2e:
         32:8c:10:19:93:5a:13:d3:4b:28:b7:55:b7:b4:e6:12:6d:78:
         d9:1e:08:b3:b4:40:ba:f4:89:ac:85:1d:c9:9f:21:f5:61:82:
         7a:f5:7b:df:76:e8:62:ba:47:8b:b7:34:57:f5:1f:3c:e7:d3:
         e5:b5:fe:3a:5a:2d:37:e6:87:55:09:ae:8a:5a:c2:2e:99:08:
         ab:d1:3e:9d:ad:69:d9:94:51:4f:aa:47:9f:f1:6b:74:f8:86:
         7f:bc:07:6b:a2:57:c9:0a:bc:30:59:2a:b0:d4:a4:1e:13:e1:
         4c:d5:ba:92:12:65:e6:91:25:db:4d:6e:57:c7:a8:62:61:6e:
         fc:cb:3c:f0:a4:27:de:e4:79:ae:d8:b4:b9:7f:f0:04:93:93:
         e3:e3:ae:29:60:62:fb:53:16:c1:c6:14:69:ec:c3:83:b9:db:
         9c:7a:3b:83:02:25:79:d9:1e:5e:f5:6c:a5:fd:ad:42:1e:04:
         4b:7d:eb:41:f1:86:cd:b2:46:eb:95:03:ed:39:e0:6b:f6:95:
         c9:5d:7a:e1
-----BEGIN CERTIFICATE-----
MIIEJjCCAw6gAwIBAgIEEAAA4DANBgkqhkiG9w0BAQsFADBEMQswCQYDVQQGEwJE
RTEPMA0GA1UECAwGSGVzc2VuMRQwEgYDVQQKDAtwcml2YWN5aWRlYTEOMAwGA1UE
AwwFQ0EwMDEwHhcNMTkwMzEzMTYyMzQ3WhcNMjAwMzEyMTYyMzQ3WjBUMQswCQYD
VQQGEwJERTEPMA0GA1UECAwGSGVzc2VuMRQwEgYDVQQKDAtwcml2YWN5aWRlYTEe
MBwGA1UEAwwVcmVxdWVzdGVyLmxvY2FsZG9tYWluMIIBIjANBgkqhkiG9w0BAQEF
AAOCAQ8AMIIBCgKCAQEAzb4UT/rOAT9CIhsdnK/dktJ/22y3PjlDQ2sTA/EF9Ad0
vHZpKAuvGY7X/OPNxljyyn8IbVP8BwJEJMa0NEyMBP4zDkDiILoCc1r39U9jbszG
tt9UHTc5fVE2Jl+93D+oi2uirrad1iHn30G4eigqaEjKqC3t4elGXlpybbSEOIeR
/ZQRCyiExsIvKvsB+TZ6CXXRM4g8c0FbyL+UiXCh8MC5LlBTHrEXZGn0LYHgqQ0O
Mum6VYqF8RtvSXm0f4jDDT5UiJs9HziMBPPuamMr9cbbtIOqxHhBOn1L4cg+ccob
YVnqxsTKMl7J6b8SKebGw2P+oFXaevFgmE0m7fpwLQIDAQABo4IBDjCCAQowCwYD
VR0PBAQDAgWgMAkGA1UdEwQCMAAwEQYJYIZIAYb4QgEBBAQDAgZAMDMGCWCGSAGG
+EIBDQQmFiRPcGVuU1NMIEdlbmVyYXRlZCBTZXJ2ZXIgQ2VydGlmaWNhdGUwHQYD
VR0OBBYEFFM/7V0JB7Nle6tFySRbCXeACpbtMHQGA1UdIwRtMGuAFPSnwMyRRq9k
85HyJ/jIsm+KhzJzoUikRjBEMQswCQYDVQQGEwJERTEPMA0GA1UECAwGSGVzc2Vu
MRQwEgYDVQQKDAtwcml2YWN5aWRlYTEOMAwGA1UEAwwFQ0EwMDGCCQD7yOusg80S
BzATBgNVHSUEDDAKBggrBgEFBQcDATANBgkqhkiG9w0BAQsFAAOCAQEADwEy4mUs
3xpDsJQPIQEEbc5hVLTf6viVPLUf9GNanSxmx2NUPpsNgQQcBoaL1KCFqhT62TQu
MowQGZNaE9NLKLdVt7TmEm142R4Is7RAuvSJrIUdyZ8h9WGCevV733boYrpHi7c0
V/UfPOfT5bX+OlotN+aHVQmuilrCLpkIq9E+na1p2ZRRT6pHn/FrdPiGf7wHa6JX
yQq8MFkqsNSkHhPhTNW6khJl5pEl201uV8eoYmFu/Ms88KQn3uR5rti0uX/wBJOT
4+OuKWBi+1MWwcYUaezDg7nbnHo7gwIledkeXvVspf2tQh4ES33rQfGGzbJG65UD
7Tnga/aVyV164Q==
-----END CERTIFICATE-----
