Certificate:
    Data:
        Version: 3 (0x2)
        Serial Number: 268435664 (0x100000d0)
    Signature Algorithm: sha256WithRSAEncryption
        Issuer: C=DE, ST=Hessen, O=privacyidea, CN=CA001
        Validity
            Not Before: Apr  5 08:36:29 2019 GMT
            Not After : Apr  4 08:36:29 2020 GMT
        Subject: C=DE, ST=Hessen, O=privacyidea, CN=requester.localdomain
        Subject Public Key Info:
            Public Key Algorithm: rsaEncryption
                Public-Key: (2048 bit)
                Modulus:
                    00:cd:be:14:4f:fa:ce:01:3f:42:22:1b:1d:9c:af:
                    dd:92:d2:7f:db:6c:b7:3e:39:43:43:6b:13:03:f1:
                    05:f4:07:74:bc:76:69:28:0b:af:19:8e:d7:fc:e3:
                    cd:c6:58:f2:ca:7f:08:6d:53:fc:07:02:44:24:c6:
                    b4:34:4c:8c:04:fe:33:0e:40:e2:20:ba:02:73:5a:
                    f7:f5:4f:63:6e:cc:c6:b6:df:54:1d:37:39:7d:51:
                    36:26:5f:bd:dc:3f:a8:8b:6b:a2:ae:b6:9d:d6:21:
                    e7:df:41:b8:7a:28:2a:68:48:ca:a8:2d:ed:e1:e9:
                    46:5e:5a:72:6d:b4:84:38:87:91:fd:94:11:0b:28:
                    84:c6:c2:2f:2a:fb:01:f9:36:7a:09:75:d1:33:88:
                    3c:73:41:5b:c8:bf:94:89:70:a1:f0:c0:b9:2e:50:
                    53:1e:b1:17:64:69:f4:2d:81:e0:a9:0d:0e:32:e9:
                    ba:55:8a:85:f1:1b:6f:49:79:b4:7f:88:c3:0d:3e:
                    54:88:9b:3d:1f:38:8c:04:f3:ee:6a:63:2b:f5:c6:
                    db:b4:83:aa:c4:78:41:3a:7d:4b:e1:c8:3e:71:ca:
                    1b:61:59:ea:c6:c4:ca:32:5e:c9:e9:bf:12:29:e6:
                    c6:c3:63:fe:a0:55:da:7a:f1:60:98:4d:26:ed:fa:
                    70:2d
                Exponent: 65537 (0x10001)
        X509v3 extensions:
            X509v3 Key Usage: 
                Digital Signature, Key Encipherment
            X509v3 Basic Constraints: 
                CA:FALSE
            Netscape Cert Type: 
                SSL Server
            Netscape Comment: 
                OpenSSL Generated Server Certificate
            X509v3 Subject Key Identifier: 
                53:3F:ED:5D:09:07:B3:65:7B:AB:45:C9:24:5B:09:77:80:0A:96:ED
            X509v3 Authority Key Identifier: 
                keyid:F4:A7:C0:CC:91:46:AF:64:F3:91:F2:27:F8:C8:B2:6F:8A:87:32:73
                DirName:/C=DE/ST=Hessen/O=privacyidea/CN=CA001
                serial:FB:C8:EB:AC:83:CD:12:07

            X509v3 Extended Key Usage: 
                TLS Web Server Authentication
    Signature Algorithm: sha256WithRSAEncryption
         76:70:22:3c:ae:e7:c9:b6:3b:9e:60:35:63:0e:08:16:72:48:
         a9:b9:c1:f9:0a:71:6c:b4:73:ff:1e:c4:84:0c:fd:52:eb:a6:
         83:8c:05:75:32:f8:ed:4e:af:3d:c1:45:7f:11:53:10:09:61:
         5e:fb:18:2a:b5:ea:54:f9:88:ab:6c:32:0b:73:01:0c:c0:7d:
         c7:87:aa:67:cf:c3:cb:a5:74:d7:2a:83:05:62:8d:6d:63:bf:
         87:39:27:82:f1:4d:b7:eb:08:3f:77:4d:96:a1:13:c2:d2:09:
         ac:45:88:f2:3e:c7:77:4f:fb:90:e1:04:0f:71:21:e4:c4:b5:
         6e:9e:99:8f:95:e1:2b:ff:db:76:b0:1f:e9:70:70:9c:eb:ed:
         a5:3c:a1:30:df:ad:51:68:6e:c8:48:bd:a9:19:54:73:06:ce:
         04:0d:c1:10:0c:ea:0e:39:d1:f1:d6:6b:23:41:f8:ee:67:e9:
         37:b9:27:45:01:32:18:e5:85:90:d2:62:c7:70:d6:e7:e8:a0:
         1d:b6:2e:22:23:5c:1b:61:fa:eb:57:f6:4c:f9:c3:df:0f:90:
         6d:1f:c6:5c:8e:de:e7:62:38:cc:fd:e8:8b:26:e4:b0:ef:11:
         5c:13:b4:19:27:f2:83:f5:62:46:d3:73:44:98:ff:32:37:89:
         05:64:67:d9
-----BEGIN CERTIFICATE-----
MIIEJjCCAw6gAwIBAgIEEAAA0DANBgkqhkiG9w0BAQsFADBEMQswCQYDVQQGEwJE
RTEPMA0GA1UECAwGSGVzc2VuMRQwEgYDVQQKDAtwcml2YWN5aWRlYTEOMAwGA1UE
AwwFQ0EwMDEwHhcNMTkwNDA1MDgzNjI5WhcNMjAwNDA0MDgzNjI5WjBUMQswCQYD
VQQGEwJERTEPMA0GA1UECAwGSGVzc2VuMRQwEgYDVQQKDAtwcml2YWN5aWRlYTEe
MBwGA1UEAwwVcmVxdWVzdGVyLmxvY2FsZG9tYWluMIIBIjANBgkqhkiG9w0BAQEF
AAOCAQ8AMIIBCgKCAQEAzb4UT/rOAT9CIhsdnK/dktJ/22y3PjlDQ2sTA/EF9Ad0
vHZpKAuvGY7X/OPNxljyyn8IbVP8BwJEJMa0NEyMBP4zDkDiILoCc1r39U9jbszG
tt9UHTc5fVE2Jl+93D+oi2uirrad1iHn30G4eigqaEjKqC3t4elGXlpybbSEOIeR
/ZQRCyiExsIvKvsB+TZ6CXXRM4g8c0FbyL+UiXCh8MC5LlBTHrEXZGn0LYHgqQ0O
Mum6VYqF8RtvSXm0f4jDDT5UiJs9HziMBPPuamMr9cbbtIOqxHhBOn1L4cg+ccob
YVnqxsTKMl7J6b8SKebGw2P+oFXaevFgmE0m7fpwLQIDAQABo4IBDjCCAQowCwYD
VR0PBAQDAgWgMAkGA1UdEwQCMAAwEQYJYIZIAYb4QgEBBAQDAgZAMDMGCWCGSAGG
+EIBDQQmFiRPcGVuU1NMIEdlbmVyYXRlZCBTZXJ2ZXIgQ2VydGlmaWNhdGUwHQYD
VR0OBBYEFFM/7V0JB7Nle6tFySRbCXeACpbtMHQGA1UdIwRtMGuAFPSnwMyRRq9k
85HyJ/jIsm+KhzJzoUikRjBEMQswCQYDVQQGEwJERTEPMA0GA1UECAwGSGVzc2Vu
MRQwEgYDVQQKDAtwcml2YWN5aWRlYTEOMAwGA1UEAwwFQ0EwMDGCCQD7yOusg80S
BzATBgNVHSUEDDAKBggrBgEFBQcDATANBgkqhkiG9w0BAQsFAAOCAQEAdnAiPK7n
ybY7nmA1Yw4IFnJIqbnB+QpxbLRz/x7EhAz9Uuumg4wFdTL47U6vPcFFfxFTEAlh
XvsYKrXqVPmIq2wyC3MBDMB9x4eqZ8/Dy6V01yqDBWKNbWO/hzkngvFNt+sIP3dN
lqETwtIJrEWI8j7Hd0/7kOEED3Eh5MS1bp6Zj5XhK//bdrAf6XBwnOvtpTyhMN+t
UWhuyEi9qRlUcwbOBA3BEAzqDjnR8dZrI0H47mfpN7knRQEyGOWFkNJix3DW5+ig
HbYuIiNcG2H661f2TPnD3w+QbR/GXI7e52I4zP3oiybksO8RXBO0GSfyg/ViRtNz
RJj/MjeJBWRn2Q==
-----END CERTIFICATE-----
