Certificate:
    Data:
        Version: 3 (0x2)
        Serial Number: 268435673 (0x100000d9)
    Signature Algorithm: sha256WithRSAEncryption
        Issuer: C=DE, ST=Hessen, O=privacyidea, CN=CA001
        Validity
            Not Before: Mar 20 08:51:22 2019 GMT
            Not After : Mar 19 08:51:22 2020 GMT
        Subject: C=DE, ST=Hessen, O=privacyidea, CN=requester.localdomain
        Subject Public Key Info:
            Public Key Algorithm: rsaEncryption
                Public-Key: (2048 bit)
                Modulus:
                    00:cd:be:14:4f:fa:ce:01:3f:42:22:1b:1d:9c:af:
                    dd:92:d2:7f:db:6c:b7:3e:39:43:43:6b:13:03:f1:
                    05:f4:07:74:bc:76:69:28:0b:af:19:8e:d7:fc:e3:
                    cd:c6:58:f2:ca:7f:08:6d:53:fc:07:02:44:24:c6:
                    b4:34:4c:8c:04:fe:33:0e:40:e2:20:ba:02:73:5a:
                    f7:f5:4f:63:6e:cc:c6:b6:df:54:1d:37:39:7d:51:
                    36:26:5f:bd:dc:3f:a8:8b:6b:a2:ae:b6:9d:d6:21:
                    e7:df:41:b8:7a:28:2a:68:48:ca:a8:2d:ed:e1:e9:
                    46:5e:5a:72:6d:b4:84:38:87:91:fd:94:11:0b:28:
                    84:c6:c2:2f:2a:fb:01:f9:36:7a:09:75:d1:33:88:
                    3c:73:41:5b:c8:bf:94:89:70:a1:f0:c0:b9:2e:50:
                    53:1e:b1:17:64:69:f4:2d:81:e0:a9:0d:0e:32:e9:
                    ba:55:8a:85:f1:1b:6f:49:79:b4:7f:88:c3:0d:3e:
                    54:88:9b:3d:1f:38:8c:04:f3:ee:6a:63:2b:f5:c6:
                    db:b4:83:aa:c4:78:41:3a:7d:4b:e1:c8:3e:71:ca:
                    1b:61:59:ea:c6:c4:ca:32:5e:c9:e9:bf:12:29:e6:
                    c6:c3:63:fe:a0:55:da:7a:f1:60:98:4d:26:ed:fa:
                    70:2d
                Exponent: 65537 (0x10001)
        X509v3 extensions:
            X509v3 Key Usage: 
                Digital Signature, Key Encipherment
            X509v3 Basic Constraints: 
                CA:FALSE
            Netscape Cert Type: 
                SSL Server
            Netscape Comment: 
                OpenSSL Generated Server Certificate
            X509v3 Subject Key Identifier: 
                53:3F:ED:5D:09:07:B3:65:7B:AB:45:C9:24:5B:09:77:80:0A:96:ED
            X509v3 Authority Key Identifier: 
                keyid:F4:A7:C0:CC:91:46:AF:64:F3:91:F2:27:F8:C8:B2:6F:8A:87:32:73
                DirName:/C=DE/ST=Hessen/O=privacyidea/CN=CA001
                serial:FB:C8:EB:AC:83:CD:12:07

            X509v3 Extended Key Usage: 
                TLS Web Server Authentication
    Signature Algorithm: sha256WithRSAEncryption
         18:28:49:59:77:38:44:30:3a:48:a5:e3:aa:48:4c:67:16:23:
         0e:4d:31:d6:a1:8b:21:44:5d:59:f3:50:b6:06:b7:b1:15:91:
         43:5a:08:5a:73:b5:2a:5b:c1:a4:b3:f3:dc:23:7e:95:9f:0e:
         5f:f1:32:61:3c:48:63:15:30:aa:f8:0f:02:cd:96:7e:df:b0:
         ab:dc:8c:80:46:7b:f4:ae:21:34:8e:0a:8c:bd:1b:cb:ab:05:
         6d:04:b0:58:fd:06:d7:08:b3:95:83:fd:f9:c3:ab:2d:95:59:
         a7:aa:f8:13:00:2d:0f:44:bb:f9:9c:e4:72:49:d4:c7:16:76:
         14:1c:1d:04:7a:20:23:3d:89:a7:8b:0e:19:4f:47:3c:b8:8a:
         4f:a2:5f:bd:58:3a:5f:6c:25:ce:cb:2b:fa:51:4f:cb:9b:0d:
         48:ec:f3:1d:82:09:a2:f0:f2:d6:ba:2a:49:96:2a:54:cc:57:
         2e:36:71:e7:1d:92:9c:38:88:fa:77:e6:e6:71:87:96:05:2a:
         85:1b:b3:51:6b:42:6d:58:3d:b4:a1:e9:cd:0f:e6:da:45:04:
         bf:a3:7e:d4:de:b5:7b:58:3b:92:72:2d:92:41:e7:fe:0f:81:
         5a:ee:31:b5:4c:f6:43:24:83:43:a3:ea:4a:3f:eb:7f:7b:ba:
         a3:aa:7c:7b
-----BEGIN CERTIFICATE-----
MIIEJjCCAw6gAwIBAgIEEAAA2TANBgkqhkiG9w0BAQsFADBEMQswCQYDVQQGEwJE
RTEPMA0GA1UECAwGSGVzc2VuMRQwEgYDVQQKDAtwcml2YWN5aWRlYTEOMAwGA1UE
AwwFQ0EwMDEwHhcNMTkwMzIwMDg1MTIyWhcNMjAwMzE5MDg1MTIyWjBUMQswCQYD
VQQGEwJERTEPMA0GA1UECAwGSGVzc2VuMRQwEgYDVQQKDAtwcml2YWN5aWRlYTEe
MBwGA1UEAwwVcmVxdWVzdGVyLmxvY2FsZG9tYWluMIIBIjANBgkqhkiG9w0BAQEF
AAOCAQ8AMIIBCgKCAQEAzb4UT/rOAT9CIhsdnK/dktJ/22y3PjlDQ2sTA/EF9Ad0
vHZpKAuvGY7X/OPNxljyyn8IbVP8BwJEJMa0NEyMBP4zDkDiILoCc1r39U9jbszG
tt9UHTc5fVE2Jl+93D+oi2uirrad1iHn30G4eigqaEjKqC3t4elGXlpybbSEOIeR
/ZQRCyiExsIvKvsB+TZ6CXXRM4g8c0FbyL+UiXCh8MC5LlBTHrEXZGn0LYHgqQ0O
Mum6VYqF8RtvSXm0f4jDDT5UiJs9HziMBPPuamMr9cbbtIOqxHhBOn1L4cg+ccob
YVnqxsTKMl7J6b8SKebGw2P+oFXaevFgmE0m7fpwLQIDAQABo4IBDjCCAQowCwYD
VR0PBAQDAgWgMAkGA1UdEwQCMAAwEQYJYIZIAYb4QgEBBAQDAgZAMDMGCWCGSAGG
+EIBDQQmFiRPcGVuU1NMIEdlbmVyYXRlZCBTZXJ2ZXIgQ2VydGlmaWNhdGUwHQYD
VR0OBBYEFFM/7V0JB7Nle6tFySRbCXeACpbtMHQGA1UdIwRtMGuAFPSnwMyRRq9k
85HyJ/jIsm+KhzJzoUikRjBEMQswCQYDVQQGEwJERTEPMA0GA1UECAwGSGVzc2Vu
MRQwEgYDVQQKDAtwcml2YWN5aWRlYTEOMAwGA1UEAwwFQ0EwMDGCCQD7yOusg80S
BzATBgNVHSUEDDAKBggrBgEFBQcDATANBgkqhkiG9w0BAQsFAAOCAQEAGChJWXc4
RDA6SKXjqkhMZxYjDk0x1qGLIURdWfNQtga3sRWRQ1oIWnO1KlvBpLPz3CN+lZ8O
X/EyYTxIYxUwqvgPAs2Wft+wq9yMgEZ79K4hNI4KjL0by6sFbQSwWP0G1wizlYP9
+cOrLZVZp6r4EwAtD0S7+ZzkcknUxxZ2FBwdBHogIz2Jp4sOGU9HPLiKT6JfvVg6
X2wlzssr+lFPy5sNSOzzHYIJovDy1roqSZYqVMxXLjZx5x2SnDiI+nfm5nGHlgUq
hRuzUWtCbVg9tKHpzQ/m2kUEv6N+1N61e1g7knItkkHn/g+BWu4xtUz2QySDQ6Pq
Sj/rf3u6o6p8ew==
-----END CERTIFICATE-----
