Certificate:
    Data:
        Version: 3 (0x2)
        Serial Number: 268435682 (0x100000e2)
    Signature Algorithm: sha256WithRSAEncryption
        Issuer: C=DE, ST=Hessen, O=privacyidea, CN=CA001
        Validity
            Not Before: Mar 13 16:33:49 2019 GMT
            Not After : Mar 12 16:33:49 2020 GMT
        Subject: C=DE, ST=Hessen, O=privacyidea, CN=requester.localdomain
        Subject Public Key Info:
            Public Key Algorithm: rsaEncryption
                Public-Key: (2048 bit)
                Modulus:
                    00:cd:be:14:4f:fa:ce:01:3f:42:22:1b:1d:9c:af:
                    dd:92:d2:7f:db:6c:b7:3e:39:43:43:6b:13:03:f1:
                    05:f4:07:74:bc:76:69:28:0b:af:19:8e:d7:fc:e3:
                    cd:c6:58:f2:ca:7f:08:6d:53:fc:07:02:44:24:c6:
                    b4:34:4c:8c:04:fe:33:0e:40:e2:20:ba:02:73:5a:
                    f7:f5:4f:63:6e:cc:c6:b6:df:54:1d:37:39:7d:51:
                    36:26:5f:bd:dc:3f:a8:8b:6b:a2:ae:b6:9d:d6:21:
                    e7:df:41:b8:7a:28:2a:68:48:ca:a8:2d:ed:e1:e9:
                    46:5e:5a:72:6d:b4:84:38:87:91:fd:94:11:0b:28:
                    84:c6:c2:2f:2a:fb:01:f9:36:7a:09:75:d1:33:88:
                    3c:73:41:5b:c8:bf:94:89:70:a1:f0:c0:b9:2e:50:
                    53:1e:b1:17:64:69:f4:2d:81:e0:a9:0d:0e:32:e9:
                    ba:55:8a:85:f1:1b:6f:49:79:b4:7f:88:c3:0d:3e:
                    54:88:9b:3d:1f:38:8c:04:f3:ee:6a:63:2b:f5:c6:
                    db:b4:83:aa:c4:78:41:3a:7d:4b:e1:c8:3e:71:ca:
                    1b:61:59:ea:c6:c4:ca:32:5e:c9:e9:bf:12:29:e6:
                    c6:c3:63:fe:a0:55:da:7a:f1:60:98:4d:26:ed:fa:
                    70:2d
                Exponent: 65537 (0x10001)
        X509v3 extensions:
            X509v3 Key Usage: 
                Digital Signature, Key Encipherment
            X509v3 Basic Constraints: 
                CA:FALSE
            Netscape Cert Type: 
                SSL Server
            Netscape Comment: 
                OpenSSL Generated Server Certificate
            X509v3 Subject Key Identifier: 
                53:3F:ED:5D:09:07:B3:65:7B:AB:45:C9:24:5B:09:77:80:0A:96:ED
            X509v3 Authority Key Identifier: 
                keyid:F4:A7:C0:CC:91:46:AF:64:F3:91:F2:27:F8:C8:B2:6F:8A:87:32:73
                DirName:/C=DE/ST=Hessen/O=privacyidea/CN=CA001
                serial:FB:C8:EB:AC:83:CD:12:07

            X509v3 Extended Key Usage: 
                TLS Web Server Authentication
    Signature Algorithm: sha256WithRSAEncryption
         49:f7:1a:a0:6b:de:08:2c:99:36:44:89:5b:a5:3e:6d:59:2e:
         5d:40:c2:6d:b0:ec:15:a8:43:3c:15:cf:51:5e:a5:a9:fb:0b:
         ea:bd:5c:5e:a3:6c:12:f4:d6:f4:86:bb:af:ad:07:4d:67:4d:
         0f:f6:8a:59:14:59:7d:cd:0a:84:18:73:a2:7b:db:e7:3f:7c:
         98:f4:35:dc:08:66:4a:6e:06:64:d5:66:6a:b3:8c:77:4b:95:
         b0:e1:fa:41:6e:ae:df:e7:ab:7b:1e:1a:67:0f:e8:cf:fa:e9:
         4b:55:2f:e3:67:bd:4f:a1:de:74:3b:da:db:58:97:b8:93:cf:
         50:a2:be:93:6f:8d:aa:89:0d:93:6a:5e:f2:92:9e:c8:f3:74:
         f6:29:0a:1a:27:42:8b:ed:6f:9c:2b:6f:7c:2f:f8:4e:2a:81:
         1a:9a:1e:c1:a0:34:46:d5:ef:1b:93:10:3c:16:2d:60:e2:48:
         57:b3:fd:33:48:83:47:de:e0:cd:b1:00:58:7a:e7:c3:52:b4:
         8f:74:02:89:17:6e:2a:da:98:45:4c:7c:07:bf:7b:ba:9a:96:
         78:c3:70:2f:50:ad:39:bd:b9:7e:5c:be:3f:0f:10:59:15:0c:
         ba:b3:5d:72:43:d0:b7:b9:85:ed:e9:a7:cd:67:0d:3b:84:35:
         e9:81:f2:91
-----BEGIN CERTIFICATE-----
MIIEJjCCAw6gAwIBAgIEEAAA4jANBgkqhkiG9w0BAQsFADBEMQswCQYDVQQGEwJE
RTEPMA0GA1UECAwGSGVzc2VuMRQwEgYDVQQKDAtwcml2YWN5aWRlYTEOMAwGA1UE
AwwFQ0EwMDEwHhcNMTkwMzEzMTYzMzQ5WhcNMjAwMzEyMTYzMzQ5WjBUMQswCQYD
VQQGEwJERTEPMA0GA1UECAwGSGVzc2VuMRQwEgYDVQQKDAtwcml2YWN5aWRlYTEe
MBwGA1UEAwwVcmVxdWVzdGVyLmxvY2FsZG9tYWluMIIBIjANBgkqhkiG9w0BAQEF
AAOCAQ8AMIIBCgKCAQEAzb4UT/rOAT9CIhsdnK/dktJ/22y3PjlDQ2sTA/EF9Ad0
vHZpKAuvGY7X/OPNxljyyn8IbVP8BwJEJMa0NEyMBP4zDkDiILoCc1r39U9jbszG
tt9UHTc5fVE2Jl+93D+oi2uirrad1iHn30G4eigqaEjKqC3t4elGXlpybbSEOIeR
/ZQRCyiExsIvKvsB+TZ6CXXRM4g8c0FbyL+UiXCh8MC5LlBTHrEXZGn0LYHgqQ0O
Mum6VYqF8RtvSXm0f4jDDT5UiJs9HziMBPPuamMr9cbbtIOqxHhBOn1L4cg+ccob
YVnqxsTKMl7J6b8SKebGw2P+oFXaevFgmE0m7fpwLQIDAQABo4IBDjCCAQowCwYD
VR0PBAQDAgWgMAkGA1UdEwQCMAAwEQYJYIZIAYb4QgEBBAQDAgZAMDMGCWCGSAGG
+EIBDQQmFiRPcGVuU1NMIEdlbmVyYXRlZCBTZXJ2ZXIgQ2VydGlmaWNhdGUwHQYD
VR0OBBYEFFM/7V0JB7Nle6tFySRbCXeACpbtMHQGA1UdIwRtMGuAFPSnwMyRRq9k
85HyJ/jIsm+KhzJzoUikRjBEMQswCQYDVQQGEwJERTEPMA0GA1UECAwGSGVzc2Vu
MRQwEgYDVQQKDAtwcml2YWN5aWRlYTEOMAwGA1UEAwwFQ0EwMDGCCQD7yOusg80S
BzATBgNVHSUEDDAKBggrBgEFBQcDATANBgkqhkiG9w0BAQsFAAOCAQEASfcaoGve
CCyZNkSJW6U+bVkuXUDCbbDsFahDPBXPUV6lqfsL6r1cXqNsEvTW9Ia7r60HTWdN
D/aKWRRZfc0KhBhzonvb5z98mPQ13AhmSm4GZNVmarOMd0uVsOH6QW6u3+erex4a
Zw/oz/rpS1Uv42e9T6HedDva21iXuJPPUKK+k2+NqokNk2pe8pKeyPN09ikKGidC
i+1vnCtvfC/4TiqBGpoewaA0RtXvG5MQPBYtYOJIV7P9M0iDR97gzbEAWHrnw1K0
j3QCiRduKtqYRUx8B797upqWeMNwL1CtOb25fly+Pw8QWRUMurNdckPQt7mF7emn
zWcNO4Q16YHykQ==
-----END CERTIFICATE-----
