Certificate:
    Data:
        Version: 3 (0x2)
        Serial Number: 268435683 (0x100000e3)
    Signature Algorithm: sha256WithRSAEncryption
        Issuer: C=DE, ST=Hessen, O=privacyidea, CN=CA001
        Validity
            Not Before: Mar 13 16:35:44 2019 GMT
            Not After : Mar 12 16:35:44 2020 GMT
        Subject: C=DE, ST=Hessen, O=privacyidea, CN=requester.localdomain
        Subject Public Key Info:
            Public Key Algorithm: rsaEncryption
                Public-Key: (2048 bit)
                Modulus:
                    00:cd:be:14:4f:fa:ce:01:3f:42:22:1b:1d:9c:af:
                    dd:92:d2:7f:db:6c:b7:3e:39:43:43:6b:13:03:f1:
                    05:f4:07:74:bc:76:69:28:0b:af:19:8e:d7:fc:e3:
                    cd:c6:58:f2:ca:7f:08:6d:53:fc:07:02:44:24:c6:
                    b4:34:4c:8c:04:fe:33:0e:40:e2:20:ba:02:73:5a:
                    f7:f5:4f:63:6e:cc:c6:b6:df:54:1d:37:39:7d:51:
                    36:26:5f:bd:dc:3f:a8:8b:6b:a2:ae:b6:9d:d6:21:
                    e7:df:41:b8:7a:28:2a:68:48:ca:a8:2d:ed:e1:e9:
                    46:5e:5a:72:6d:b4:84:38:87:91:fd:94:11:0b:28:
                    84:c6:c2:2f:2a:fb:01:f9:36:7a:09:75:d1:33:88:
                    3c:73:41:5b:c8:bf:94:89:70:a1:f0:c0:b9:2e:50:
                    53:1e:b1:17:64:69:f4:2d:81:e0:a9:0d:0e:32:e9:
                    ba:55:8a:85:f1:1b:6f:49:79:b4:7f:88:c3:0d:3e:
                    54:88:9b:3d:1f:38:8c:04:f3:ee:6a:63:2b:f5:c6:
                    db:b4:83:aa:c4:78:41:3a:7d:4b:e1:c8:3e:71:ca:
                    1b:61:59:ea:c6:c4:ca:32:5e:c9:e9:bf:12:29:e6:
                    c6:c3:63:fe:a0:55:da:7a:f1:60:98:4d:26:ed:fa:
                    70:2d
                Exponent: 65537 (0x10001)
        X509v3 extensions:
            X509v3 Key Usage: 
                Digital Signature, Key Encipherment
            X509v3 Basic Constraints: 
                CA:FALSE
            Netscape Cert Type: 
                SSL Server
            Netscape Comment: 
                OpenSSL Generated Server Certificate
            X509v3 Subject Key Identifier: 
                53:3F:ED:5D:09:07:B3:65:7B:AB:45:C9:24:5B:09:77:80:0A:96:ED
            X509v3 Authority Key Identifier: 
                keyid:F4:A7:C0:CC:91:46:AF:64:F3:91:F2:27:F8:C8:B2:6F:8A:87:32:73
                DirName:/C=DE/ST=Hessen/O=privacyidea/CN=CA001
                serial:FB:C8:EB:AC:83:CD:12:07

            X509v3 Extended Key Usage: 
                TLS Web Server Authentication
    Signature Algorithm: sha256WithRSAEncryption
         8b:bc:36:c8:84:98:ed:4b:a7:dc:f1:76:29:1c:9e:47:b9:ef:
         39:2f:89:1f:86:50:fe:e6:78:cc:83:cb:e9:83:77:bd:49:fe:
         de:05:bb:c0:59:ff:5c:c4:37:41:cf:8a:19:38:08:6d:af:1e:
         d7:e6:18:c6:96:b3:ae:1a:7c:ef:82:ff:cd:b8:4b:66:ad:4a:
         35:41:a8:73:43:0b:c2:94:d2:40:59:63:a4:72:25:a5:2e:46:
         cc:0e:17:d1:ad:44:99:f3:6e:3d:fc:85:c1:6f:56:7f:c6:44:
         55:2d:b3:50:45:93:8a:43:60:79:41:06:6c:ed:be:39:40:4a:
         5e:e2:3d:a9:d5:29:89:53:93:d1:3b:79:7d:9d:5e:1a:ff:d8:
         31:99:56:49:58:b8:fc:f8:06:cf:43:ce:0c:1f:87:d3:54:ce:
         f5:1f:4d:3c:e1:07:77:2f:ca:e5:14:4c:36:f7:d0:8f:9f:cf:
         3c:e5:14:ac:2a:2b:22:d7:2f:a3:ac:84:cc:36:cb:38:0c:16:
         72:db:a1:2d:a6:3a:cc:7e:da:8b:6d:e9:52:9c:c1:02:35:02:
         91:c7:c0:41:9f:6f:63:fc:aa:96:27:8a:9b:cb:ca:a1:72:80:
         d7:66:79:bc:45:89:00:0d:40:93:21:18:56:8e:c2:91:8f:61:
         f8:99:ce:45
-----BEGIN CERTIFICATE-----
MIIEJjCCAw6gAwIBAgIEEAAA4zANBgkqhkiG9w0BAQsFADBEMQswCQYDVQQGEwJE
RTEPMA0GA1UECAwGSGVzc2VuMRQwEgYDVQQKDAtwcml2YWN5aWRlYTEOMAwGA1UE
AwwFQ0EwMDEwHhcNMTkwMzEzMTYzNTQ0WhcNMjAwMzEyMTYzNTQ0WjBUMQswCQYD
VQQGEwJERTEPMA0GA1UECAwGSGVzc2VuMRQwEgYDVQQKDAtwcml2YWN5aWRlYTEe
MBwGA1UEAwwVcmVxdWVzdGVyLmxvY2FsZG9tYWluMIIBIjANBgkqhkiG9w0BAQEF
AAOCAQ8AMIIBCgKCAQEAzb4UT/rOAT9CIhsdnK/dktJ/22y3PjlDQ2sTA/EF9Ad0
vHZpKAuvGY7X/OPNxljyyn8IbVP8BwJEJMa0NEyMBP4zDkDiILoCc1r39U9jbszG
tt9UHTc5fVE2Jl+93D+oi2uirrad1iHn30G4eigqaEjKqC3t4elGXlpybbSEOIeR
/ZQRCyiExsIvKvsB+TZ6CXXRM4g8c0FbyL+UiXCh8MC5LlBTHrEXZGn0LYHgqQ0O
Mum6VYqF8RtvSXm0f4jDDT5UiJs9HziMBPPuamMr9cbbtIOqxHhBOn1L4cg+ccob
YVnqxsTKMl7J6b8SKebGw2P+oFXaevFgmE0m7fpwLQIDAQABo4IBDjCCAQowCwYD
VR0PBAQDAgWgMAkGA1UdEwQCMAAwEQYJYIZIAYb4QgEBBAQDAgZAMDMGCWCGSAGG
+EIBDQQmFiRPcGVuU1NMIEdlbmVyYXRlZCBTZXJ2ZXIgQ2VydGlmaWNhdGUwHQYD
VR0OBBYEFFM/7V0JB7Nle6tFySRbCXeACpbtMHQGA1UdIwRtMGuAFPSnwMyRRq9k
85HyJ/jIsm+KhzJzoUikRjBEMQswCQYDVQQGEwJERTEPMA0GA1UECAwGSGVzc2Vu
MRQwEgYDVQQKDAtwcml2YWN5aWRlYTEOMAwGA1UEAwwFQ0EwMDGCCQD7yOusg80S
BzATBgNVHSUEDDAKBggrBgEFBQcDATANBgkqhkiG9w0BAQsFAAOCAQEAi7w2yISY
7Uun3PF2KRyeR7nvOS+JH4ZQ/uZ4zIPL6YN3vUn+3gW7wFn/XMQ3Qc+KGTgIba8e
1+YYxpazrhp874L/zbhLZq1KNUGoc0MLwpTSQFljpHIlpS5GzA4X0a1EmfNuPfyF
wW9Wf8ZEVS2zUEWTikNgeUEGbO2+OUBKXuI9qdUpiVOT0Tt5fZ1eGv/YMZlWSVi4
/PgGz0PODB+H01TO9R9NPOEHdy/K5RRMNvfQj5/PPOUUrCorItcvo6yEzDbLOAwW
ctuhLaY6zH7ai23pUpzBAjUCkcfAQZ9vY/yqlieKm8vKoXKA12Z5vEWJAA1AkyEY
Vo7CkY9h+JnORQ==
-----END CERTIFICATE-----
