Certificate:
    Data:
        Version: 3 (0x2)
        Serial Number: 268435690 (0x100000ea)
    Signature Algorithm: sha256WithRSAEncryption
        Issuer: C=DE, ST=Hessen, O=privacyidea, CN=CA001
        Validity
            Not Before: Feb  8 22:02:35 2019 GMT
            Not After : Feb  8 22:02:35 2020 GMT
        Subject: C=DE, ST=Hessen, O=privacyidea, CN=usercert
        Subject Public Key Info:
            Public Key Algorithm: rsaEncryption
                Public-Key: (2048 bit)
                Modulus:
                    00:dc:2f:d1:5f:29:97:d4:7c:c3:53:c8:30:bd:4b:
                    67:70:2c:24:6b:b8:5e:eb:21:7a:48:12:56:7c:81:
                    5c:48:75:b6:68:eb:f6:f2:98:4e:50:51:d1:7f:6c:
                    73:f3:0a:a7:ae:be:48:5e:e5:d6:e1:d9:2a:7c:32:
                    6e:4e:fd:08:f6:5a:54:49:23:73:c3:b9:07:18:d1:
                    ef:b3:ac:f8:8a:dc:94:96:a4:90:3a:8e:74:df:e6:
                    0d:37:1b:bd:5b:b7:25:1a:56:39:da:6f:91:aa:5e:
                    1c:74:f3:f9:7c:14:01:83:12:65:76:c7:bb:fe:36:
                    5b:95:e9:72:65:83:ed:3e:98:30:71:fa:87:dd:a3:
                    36:5a:30:03:2e:26:e0:61:d1:bf:02:3f:b6:06:1f:
                    4a:89:28:1c:5c:a2:ff:4e:be:94:e6:8c:e0:da:82:
                    f1:9d:29:32:48:30:73:b4:04:f6:42:1e:be:f7:e2:
                    32:32:27:3c:9d:89:2f:70:3e:85:9a:6f:5c:c5:09:
                    c0:8c:32:2f:72:22:c9:d2:95:1f:b6:ac:72:60:72:
                    b7:82:4d:6b:ce:5b:e3:00:d0:d2:2f:58:c6:e0:10:
                    e5:51:ca:4d:3b:2e:e6:7e:ab:84:d6:56:f1:93:35:
                    a0:93:64:26:81:75:2f:91:b5:16:06:38:0b:db:cc:
                    2d:07
                Exponent: 65537 (0x10001)
        X509v3 extensions:
            X509v3 Key Usage: 
                Digital Signature, Key Encipherment
            X509v3 Basic Constraints: 
                CA:FALSE
            Netscape Cert Type: 
                SSL Server
            Netscape Comment: 
                OpenSSL Generated Server Certificate
            X509v3 Subject Key Identifier: 
                FC:14:D1:F0:4B:8D:00:90:F2:F5:B8:71:9E:4E:97:C3:92:54:AD:0B
            X509v3 Authority Key Identifier: 
                keyid:F4:A7:C0:CC:91:46:AF:64:F3:91:F2:27:F8:C8:B2:6F:8A:87:32:73
                DirName:/C=DE/ST=Hessen/O=privacyidea/CN=CA001
                serial:FB:C8:EB:AC:83:CD:12:07

            X509v3 Extended Key Usage: 
                TLS Web Server Authentication
    Signature Algorithm: sha256WithRSAEncryption
         7b:02:2b:95:ce:c2:6a:d1:fd:cb:80:fb:8f:5f:d2:02:94:65:
         68:6d:66:2c:a6:6e:3b:52:2f:e7:75:2e:4d:20:1b:51:02:87:
         b2:65:2f:99:52:fe:c2:f0:61:e5:cc:4a:b2:be:c9:90:c2:c6:
         c5:7e:72:2a:46:ac:8b:0e:7e:09:b9:00:95:dc:ea:13:ad:c0:
         79:61:66:1d:66:f6:64:2b:f9:38:90:83:9c:3b:89:ee:80:9a:
         42:0d:a9:10:89:7e:75:21:c6:c6:22:9b:7e:cc:ee:1a:5d:52:
         96:5e:05:e3:b3:a9:e7:54:93:67:98:59:1d:b9:96:a4:ed:0a:
         cb:80:2a:c0:4c:d1:a8:bd:c6:06:d0:10:7a:8b:e4:7b:21:0a:
         45:47:0c:dd:9a:73:7d:10:a8:ee:ff:46:f8:5e:d8:af:27:35:
         60:ec:63:c8:8e:9c:5d:d0:69:09:24:ea:50:c2:7d:37:8f:f0:
         b1:c3:35:1b:18:b8:e4:d7:4d:b3:7f:87:fa:20:93:83:bf:c2:
         3b:ee:67:fb:4b:f3:24:e5:04:85:cb:28:fa:c0:10:65:d4:43:
         21:f3:cd:f7:90:06:5a:ff:c6:23:b4:ff:39:94:7d:cb:36:ad:
         63:7c:14:3f:93:28:fe:56:90:bd:38:e3:44:fc:9c:2c:cd:d6:
         3a:8d:fc:07
-----BEGIN CERTIFICATE-----
MIIEGTCCAwGgAwIBAgIEEAAA6jANBgkqhkiG9w0BAQsFADBEMQswCQYDVQQGEwJE
RTEPMA0GA1UECAwGSGVzc2VuMRQwEgYDVQQKDAtwcml2YWN5aWRlYTEOMAwGA1UE
AwwFQ0EwMDEwHhcNMTkwMjA4MjIwMjM1WhcNMjAwMjA4MjIwMjM1WjBHMQswCQYD
VQQGEwJERTEPMA0GA1UECAwGSGVzc2VuMRQwEgYDVQQKDAtwcml2YWN5aWRlYTER
MA8GA1UEAwwIdXNlcmNlcnQwggEiMA0GCSqGSIb3DQEBAQUAA4IBDwAwggEKAoIB
AQDcL9FfKZfUfMNTyDC9S2dwLCRruF7rIXpIElZ8gVxIdbZo6/bymE5QUdF/bHPz
Cqeuvkhe5dbh2Sp8Mm5O/Qj2WlRJI3PDuQcY0e+zrPiK3JSWpJA6jnTf5g03G71b
tyUaVjnab5GqXhx08/l8FAGDEmV2x7v+NluV6XJlg+0+mDBx+ofdozZaMAMuJuBh
0b8CP7YGH0qJKBxcov9OvpTmjODagvGdKTJIMHO0BPZCHr734jIyJzydiS9wPoWa
b1zFCcCMMi9yIsnSlR+2rHJgcreCTWvOW+MA0NIvWMbgEOVRyk07LuZ+q4TWVvGT
NaCTZCaBdS+RtRYGOAvbzC0HAgMBAAGjggEOMIIBCjALBgNVHQ8EBAMCBaAwCQYD
VR0TBAIwADARBglghkgBhvhCAQEEBAMCBkAwMwYJYIZIAYb4QgENBCYWJE9wZW5T
U0wgR2VuZXJhdGVkIFNlcnZlciBDZXJ0aWZpY2F0ZTAdBgNVHQ4EFgQU/BTR8EuN
AJDy9bhxnk6Xw5JUrQswdAYDVR0jBG0wa4AU9KfAzJFGr2TzkfIn+Miyb4qHMnOh
SKRGMEQxCzAJBgNVBAYTAkRFMQ8wDQYDVQQIDAZIZXNzZW4xFDASBgNVBAoMC3By
aXZhY3lpZGVhMQ4wDAYDVQQDDAVDQTAwMYIJAPvI66yDzRIHMBMGA1UdJQQMMAoG
CCsGAQUFBwMBMA0GCSqGSIb3DQEBCwUAA4IBAQB7AiuVzsJq0f3LgPuPX9IClGVo
bWYspm47Ui/ndS5NIBtRAoeyZS+ZUv7C8GHlzEqyvsmQwsbFfnIqRqyLDn4JuQCV
3OoTrcB5YWYdZvZkK/k4kIOcO4nugJpCDakQiX51IcbGIpt+zO4aXVKWXgXjs6nn
VJNnmFkduZak7QrLgCrATNGovcYG0BB6i+R7IQpFRwzdmnN9EKju/0b4XtivJzVg
7GPIjpxd0GkJJOpQwn03j/CxwzUbGLjk102zf4f6IJODv8I77mf7S/Mk5QSFyyj6
wBBl1EMh8833kAZa/8YjtP85lH3LNq1jfBQ/kyj+VpC9OONE/JwszdY6jfwH
-----END CERTIFICATE-----
