Certificate:
    Data:
        Version: 3 (0x2)
        Serial Number: 268435688 (0x100000e8)
    Signature Algorithm: sha256WithRSAEncryption
        Issuer: C=DE, ST=Hessen, O=privacyidea, CN=CA001
        Validity
            Not Before: Mar 13 16:37:49 2019 GMT
            Not After : Mar 12 16:37:49 2020 GMT
        Subject: OU=realm1, CN=cornelius/emailAddress=user@localhost.localdomain
        Subject Public Key Info:
            Public Key Algorithm: rsaEncryption
                Public-Key: (2048 bit)
                Modulus:
                    00:f0:a2:38:56:5b:53:30:9a:ed:0a:24:3e:45:db:
                    88:f4:28:3b:eb:a7:13:83:3f:98:08:87:9b:c5:4b:
                    b1:65:7f:97:70:46:c2:8e:64:6b:78:6a:ca:9b:28:
                    73:23:10:58:5a:95:5a:e4:d2:2e:53:26:eb:14:57:
                    6b:65:95:40:1d:dc:e4:58:7e:c9:25:5e:93:08:a2:
                    1e:33:b3:77:89:d4:e8:58:2f:fe:c7:53:60:ad:c3:
                    36:c2:69:48:3a:e5:6f:19:12:b9:60:cf:ff:3d:21:
                    32:6b:6b:61:c7:a1:f3:a2:75:2e:9c:91:2a:6a:db:
                    6f:bb:76:71:e9:e2:d0:d0:df:2d:e4:fd:e5:85:d3:
                    f2:ed:cc:10:7b:4c:dc:07:96:b8:ed:49:e4:0d:6d:
                    90:bf:70:ef:3b:3a:98:5b:ae:22:2e:ca:c1:0b:42:
                    ce:1e:26:6f:08:2f:6b:74:9d:e9:fc:53:70:1d:71:
                    fe:bb:fe:f3:6d:ab:d8:66:a8:b0:09:11:54:97:52:
                    c7:06:80:2c:73:b9:38:6f:86:de:d8:70:0d:8d:dc:
                    53:23:63:e1:60:0e:2e:4a:ca:73:a4:b4:cc:15:7c:
                    f2:a3:4a:f4:ca:69:cd:44:1f:cf:c4:2f:a9:f6:c1:
                    7a:2b:01:38:02:1b:b4:57:af:2c:f6:92:be:8b:8e:
                    6a:53
                Exponent: 65537 (0x10001)
        X509v3 extensions:
            X509v3 Key Usage: 
                Digital Signature, Key Encipherment
            X509v3 Basic Constraints: 
                CA:FALSE
            Netscape Cert Type: 
                SSL Server
            Netscape Comment: 
                OpenSSL Generated Server Certificate
            X509v3 Subject Key Identifier: 
                75:F3:EB:FB:57:3F:70:2A:B5:24:1B:9B:59:1B:FC:D7:C7:C9:6D:F6
            X509v3 Authority Key Identifier: 
                keyid:F4:A7:C0:CC:91:46:AF:64:F3:91:F2:27:F8:C8:B2:6F:8A:87:32:73
                DirName:/C=DE/ST=Hessen/O=privacyidea/CN=CA001
                serial:FB:C8:EB:AC:83:CD:12:07

            X509v3 Extended Key Usage: 
                TLS Web Server Authentication
    Signature Algorithm: sha256WithRSAEncryption
         b2:4c:22:de:66:af:43:12:d9:61:bb:43:36:8f:f9:da:dd:2c:
         21:ee:01:9e:9f:b2:68:36:eb:a1:14:6d:85:73:c1:ac:32:6f:
         e1:f5:23:1c:e2:0f:2b:e8:38:60:8a:3e:6b:10:59:74:0e:26:
         40:1d:ff:fd:b8:80:41:81:66:17:dd:60:c3:1b:1c:6b:a8:7e:
         fd:59:db:68:43:ec:ba:4c:86:8f:c9:c2:97:33:3f:bd:b4:c6:
         2f:a3:b8:fc:98:8f:d3:d1:3a:c2:93:fd:8d:26:75:8e:76:7f:
         41:9d:44:2d:b3:b6:7e:ec:6e:2f:47:19:25:5c:9d:74:36:91:
         df:30:93:f4:d5:c6:93:09:24:84:07:e5:07:f0:83:a1:eb:97:
         5e:36:32:e0:fa:98:12:70:ec:09:17:b2:3b:b6:13:e2:f3:1a:
         62:51:d9:f1:a7:a0:05:bf:25:28:56:04:4c:21:2c:c1:75:34:
         13:be:fa:1c:12:ab:4d:fe:de:3a:94:98:c8:76:c1:1e:cb:28:
         65:0f:af:62:dd:ea:a5:e3:90:28:03:7b:68:cf:27:a1:35:d3:
         42:1c:60:30:ca:77:58:45:5a:fc:1b:b2:df:fe:c5:b6:f9:fe:
         7a:53:5d:25:19:f9:02:ed:f9:4f:e0:69:b5:d8:ad:2d:0f:dd:
         fe:bf:aa:47
-----BEGIN CERTIFICATE-----
MIIEIjCCAwqgAwIBAgIEEAAA6DANBgkqhkiG9w0BAQsFADBEMQswCQYDVQQGEwJE
RTEPMA0GA1UECAwGSGVzc2VuMRQwEgYDVQQKDAtwcml2YWN5aWRlYTEOMAwGA1UE
AwwFQ0EwMDEwHhcNMTkwMzEzMTYzNzQ5WhcNMjAwMzEyMTYzNzQ5WjBQMQ8wDQYD
VQQLDAZyZWFsbTExEjAQBgNVBAMMCWNvcm5lbGl1czEpMCcGCSqGSIb3DQEJARYa
dXNlckBsb2NhbGhvc3QubG9jYWxkb21haW4wggEiMA0GCSqGSIb3DQEBAQUAA4IB
DwAwggEKAoIBAQDwojhWW1Mwmu0KJD5F24j0KDvrpxODP5gIh5vFS7Flf5dwRsKO
ZGt4asqbKHMjEFhalVrk0i5TJusUV2tllUAd3ORYfsklXpMIoh4zs3eJ1OhYL/7H
U2CtwzbCaUg65W8ZErlgz/89ITJra2HHofOidS6ckSpq22+7dnHp4tDQ3y3k/eWF
0/LtzBB7TNwHlrjtSeQNbZC/cO87OphbriIuysELQs4eJm8IL2t0nen8U3Adcf67
/vNtq9hmqLAJEVSXUscGgCxzuThvht7YcA2N3FMjY+FgDi5KynOktMwVfPKjSvTK
ac1EH8/EL6n2wXorATgCG7RXryz2kr6LjmpTAgMBAAGjggEOMIIBCjALBgNVHQ8E
BAMCBaAwCQYDVR0TBAIwADARBglghkgBhvhCAQEEBAMCBkAwMwYJYIZIAYb4QgEN
BCYWJE9wZW5TU0wgR2VuZXJhdGVkIFNlcnZlciBDZXJ0aWZpY2F0ZTAdBgNVHQ4E
FgQUdfPr+1c/cCq1JBubWRv818fJbfYwdAYDVR0jBG0wa4AU9KfAzJFGr2TzkfIn
+Miyb4qHMnOhSKRGMEQxCzAJBgNVBAYTAkRFMQ8wDQYDVQQIDAZIZXNzZW4xFDAS
BgNVBAoMC3ByaXZhY3lpZGVhMQ4wDAYDVQQDDAVDQTAwMYIJAPvI66yDzRIHMBMG
A1UdJQQMMAoGCCsGAQUFBwMBMA0GCSqGSIb3DQEBCwUAA4IBAQCyTCLeZq9DEtlh
u0M2j/na3Swh7gGen7JoNuuhFG2Fc8GsMm/h9SMc4g8r6Dhgij5rEFl0DiZAHf/9
uIBBgWYX3WDDGxxrqH79WdtoQ+y6TIaPycKXMz+9tMYvo7j8mI/T0TrCk/2NJnWO
dn9BnUQts7Z+7G4vRxklXJ10NpHfMJP01caTCSSEB+UH8IOh65deNjLg+pgScOwJ
F7I7thPi8xpiUdnxp6AFvyUoVgRMISzBdTQTvvocEqtN/t46lJjIdsEeyyhlD69i
3eql45AoA3tozyehNdNCHGAwyndYRVr8G7Lf/sW2+f56U10lGfkC7flP4Gm12K0t
D93+v6pH
-----END CERTIFICATE-----
