Certificate:
    Data:
        Version: 3 (0x2)
        Serial Number: 268435674 (0x100000da)
    Signature Algorithm: sha256WithRSAEncryption
        Issuer: C=DE, ST=Hessen, O=privacyidea, CN=CA001
        Validity
            Not Before: Mar 20 08:51:22 2019 GMT
            Not After : Mar 19 08:51:22 2020 GMT
        Subject: C=DE, ST=Hessen, O=privacyidea, CN=usercert
        Subject Public Key Info:
            Public Key Algorithm: rsaEncryption
                Public-Key: (2048 bit)
                Modulus:
                    00:dc:2f:d1:5f:29:97:d4:7c:c3:53:c8:30:bd:4b:
                    67:70:2c:24:6b:b8:5e:eb:21:7a:48:12:56:7c:81:
                    5c:48:75:b6:68:eb:f6:f2:98:4e:50:51:d1:7f:6c:
                    73:f3:0a:a7:ae:be:48:5e:e5:d6:e1:d9:2a:7c:32:
                    6e:4e:fd:08:f6:5a:54:49:23:73:c3:b9:07:18:d1:
                    ef:b3:ac:f8:8a:dc:94:96:a4:90:3a:8e:74:df:e6:
                    0d:37:1b:bd:5b:b7:25:1a:56:39:da:6f:91:aa:5e:
                    1c:74:f3:f9:7c:14:01:83:12:65:76:c7:bb:fe:36:
                    5b:95:e9:72:65:83:ed:3e:98:30:71:fa:87:dd:a3:
                    36:5a:30:03:2e:26:e0:61:d1:bf:02:3f:b6:06:1f:
                    4a:89:28:1c:5c:a2:ff:4e:be:94:e6:8c:e0:da:82:
                    f1:9d:29:32:48:30:73:b4:04:f6:42:1e:be:f7:e2:
                    32:32:27:3c:9d:89:2f:70:3e:85:9a:6f:5c:c5:09:
                    c0:8c:32:2f:72:22:c9:d2:95:1f:b6:ac:72:60:72:
                    b7:82:4d:6b:ce:5b:e3:00:d0:d2:2f:58:c6:e0:10:
                    e5:51:ca:4d:3b:2e:e6:7e:ab:84:d6:56:f1:93:35:
                    a0:93:64:26:81:75:2f:91:b5:16:06:38:0b:db:cc:
                    2d:07
                Exponent: 65537 (0x10001)
        X509v3 extensions:
            X509v3 Key Usage: 
                Digital Signature, Key Encipherment
            X509v3 Basic Constraints: 
                CA:FALSE
            Netscape Cert Type: 
                SSL Server
            Netscape Comment: 
                OpenSSL Generated Server Certificate
            X509v3 Subject Key Identifier: 
                FC:14:D1:F0:4B:8D:00:90:F2:F5:B8:71:9E:4E:97:C3:92:54:AD:0B
            X509v3 Authority Key Identifier: 
                keyid:F4:A7:C0:CC:91:46:AF:64:F3:91:F2:27:F8:C8:B2:6F:8A:87:32:73
                DirName:/C=DE/ST=Hessen/O=privacyidea/CN=CA001
                serial:FB:C8:EB:AC:83:CD:12:07

            X509v3 Extended Key Usage: 
                TLS Web Server Authentication
    Signature Algorithm: sha256WithRSAEncryption
         69:f9:1d:67:d4:e3:ce:cd:20:96:07:ec:1f:06:47:a6:d0:2c:
         e3:50:b1:fe:c0:80:e4:27:79:f1:45:51:60:ea:58:ff:5d:9b:
         6e:40:b2:68:bb:f5:ce:1f:f2:c1:b2:c4:3a:ff:25:57:03:e1:
         72:9a:eb:6b:5c:68:f5:38:52:e4:ea:75:1e:be:a5:ef:48:eb:
         b9:94:f1:3e:90:e0:30:f3:94:d4:0b:19:eb:ba:85:4e:ca:c1:
         9c:21:2f:67:ed:f8:9c:a7:f9:12:1d:9c:ab:9c:30:8e:f1:02:
         3f:64:d2:35:9f:60:d1:31:2e:f4:ee:c2:23:b2:1e:f3:43:e8:
         0d:0f:f6:65:db:1a:a7:0e:3a:af:ad:54:ab:d0:20:db:53:2a:
         c0:9d:51:9a:9b:66:63:95:86:e3:01:9c:94:62:49:51:4b:c1:
         f2:d1:97:b3:cd:f7:e9:3d:3e:49:3d:b8:16:63:cd:26:07:f5:
         c6:d0:cc:49:96:1e:c4:df:38:f2:31:21:9a:24:3f:20:26:0b:
         7a:1f:1b:23:ae:b0:1e:c6:83:b1:aa:1c:24:33:00:c0:31:c0:
         59:20:98:3b:00:12:5c:95:6f:d2:d8:5a:18:4d:b8:22:9b:36:
         a4:6f:4d:fb:44:98:94:00:44:66:ed:91:e3:ab:73:48:64:e8:
         84:ad:0d:e6
-----BEGIN CERTIFICATE-----
MIIEGTCCAwGgAwIBAgIEEAAA2jANBgkqhkiG9w0BAQsFADBEMQswCQYDVQQGEwJE
RTEPMA0GA1UECAwGSGVzc2VuMRQwEgYDVQQKDAtwcml2YWN5aWRlYTEOMAwGA1UE
AwwFQ0EwMDEwHhcNMTkwMzIwMDg1MTIyWhcNMjAwMzE5MDg1MTIyWjBHMQswCQYD
VQQGEwJERTEPMA0GA1UECAwGSGVzc2VuMRQwEgYDVQQKDAtwcml2YWN5aWRlYTER
MA8GA1UEAwwIdXNlcmNlcnQwggEiMA0GCSqGSIb3DQEBAQUAA4IBDwAwggEKAoIB
AQDcL9FfKZfUfMNTyDC9S2dwLCRruF7rIXpIElZ8gVxIdbZo6/bymE5QUdF/bHPz
Cqeuvkhe5dbh2Sp8Mm5O/Qj2WlRJI3PDuQcY0e+zrPiK3JSWpJA6jnTf5g03G71b
tyUaVjnab5GqXhx08/l8FAGDEmV2x7v+NluV6XJlg+0+mDBx+ofdozZaMAMuJuBh
0b8CP7YGH0qJKBxcov9OvpTmjODagvGdKTJIMHO0BPZCHr734jIyJzydiS9wPoWa
b1zFCcCMMi9yIsnSlR+2rHJgcreCTWvOW+MA0NIvWMbgEOVRyk07LuZ+q4TWVvGT
NaCTZCaBdS+RtRYGOAvbzC0HAgMBAAGjggEOMIIBCjALBgNVHQ8EBAMCBaAwCQYD
VR0TBAIwADARBglghkgBhvhCAQEEBAMCBkAwMwYJYIZIAYb4QgENBCYWJE9wZW5T
U0wgR2VuZXJhdGVkIFNlcnZlciBDZXJ0aWZpY2F0ZTAdBgNVHQ4EFgQU/BTR8EuN
AJDy9bhxnk6Xw5JUrQswdAYDVR0jBG0wa4AU9KfAzJFGr2TzkfIn+Miyb4qHMnOh
SKRGMEQxCzAJBgNVBAYTAkRFMQ8wDQYDVQQIDAZIZXNzZW4xFDASBgNVBAoMC3By
aXZhY3lpZGVhMQ4wDAYDVQQDDAVDQTAwMYIJAPvI66yDzRIHMBMGA1UdJQQMMAoG
CCsGAQUFBwMBMA0GCSqGSIb3DQEBCwUAA4IBAQBp+R1n1OPOzSCWB+wfBkem0Czj
ULH+wIDkJ3nxRVFg6lj/XZtuQLJou/XOH/LBssQ6/yVXA+FymutrXGj1OFLk6nUe
vqXvSOu5lPE+kOAw85TUCxnruoVOysGcIS9n7ficp/kSHZyrnDCO8QI/ZNI1n2DR
MS707sIjsh7zQ+gND/Zl2xqnDjqvrVSr0CDbUyrAnVGam2ZjlYbjAZyUYklRS8Hy
0ZezzffpPT5JPbgWY80mB/XG0MxJlh7E3zjyMSGaJD8gJgt6HxsjrrAexoOxqhwk
MwDAMcBZIJg7ABJclW/S2FoYTbgimzakb037RJiUAERm7ZHjq3NIZOiErQ3m
-----END CERTIFICATE-----
