Certificate:
    Data:
        Version: 3 (0x2)
        Serial Number: 268435677 (0x100000dd)
    Signature Algorithm: sha256WithRSAEncryption
        Issuer: C=DE, ST=Hessen, O=privacyidea, CN=CA001
        Validity
            Not Before: Mar 20 08:53:30 2019 GMT
            Not After : Mar 19 08:53:30 2020 GMT
        Subject: C=DE, ST=Hessen, O=privacyidea, CN=requester.localdomain
        Subject Public Key Info:
            Public Key Algorithm: rsaEncryption
                Public-Key: (2048 bit)
                Modulus:
                    00:cd:be:14:4f:fa:ce:01:3f:42:22:1b:1d:9c:af:
                    dd:92:d2:7f:db:6c:b7:3e:39:43:43:6b:13:03:f1:
                    05:f4:07:74:bc:76:69:28:0b:af:19:8e:d7:fc:e3:
                    cd:c6:58:f2:ca:7f:08:6d:53:fc:07:02:44:24:c6:
                    b4:34:4c:8c:04:fe:33:0e:40:e2:20:ba:02:73:5a:
                    f7:f5:4f:63:6e:cc:c6:b6:df:54:1d:37:39:7d:51:
                    36:26:5f:bd:dc:3f:a8:8b:6b:a2:ae:b6:9d:d6:21:
                    e7:df:41:b8:7a:28:2a:68:48:ca:a8:2d:ed:e1:e9:
                    46:5e:5a:72:6d:b4:84:38:87:91:fd:94:11:0b:28:
                    84:c6:c2:2f:2a:fb:01:f9:36:7a:09:75:d1:33:88:
                    3c:73:41:5b:c8:bf:94:89:70:a1:f0:c0:b9:2e:50:
                    53:1e:b1:17:64:69:f4:2d:81:e0:a9:0d:0e:32:e9:
                    ba:55:8a:85:f1:1b:6f:49:79:b4:7f:88:c3:0d:3e:
                    54:88:9b:3d:1f:38:8c:04:f3:ee:6a:63:2b:f5:c6:
                    db:b4:83:aa:c4:78:41:3a:7d:4b:e1:c8:3e:71:ca:
                    1b:61:59:ea:c6:c4:ca:32:5e:c9:e9:bf:12:29:e6:
                    c6:c3:63:fe:a0:55:da:7a:f1:60:98:4d:26:ed:fa:
                    70:2d
                Exponent: 65537 (0x10001)
        X509v3 extensions:
            X509v3 Key Usage: 
                Digital Signature, Key Encipherment
            X509v3 Basic Constraints: 
                CA:FALSE
            Netscape Cert Type: 
                SSL Server
            Netscape Comment: 
                OpenSSL Generated Server Certificate
            X509v3 Subject Key Identifier: 
                53:3F:ED:5D:09:07:B3:65:7B:AB:45:C9:24:5B:09:77:80:0A:96:ED
            X509v3 Authority Key Identifier: 
                keyid:F4:A7:C0:CC:91:46:AF:64:F3:91:F2:27:F8:C8:B2:6F:8A:87:32:73
                DirName:/C=DE/ST=Hessen/O=privacyidea/CN=CA001
                serial:FB:C8:EB:AC:83:CD:12:07

            X509v3 Extended Key Usage: 
                TLS Web Server Authentication
    Signature Algorithm: sha256WithRSAEncryption
         39:b4:ea:2e:63:29:45:d4:36:a3:1c:96:af:63:a3:bd:c3:c6:
         62:1c:09:4f:b8:15:0f:41:c7:66:bf:1d:8b:de:87:30:3c:c8:
         25:7f:61:7f:26:49:65:76:eb:90:ba:75:ff:7a:58:27:5b:7e:
         d6:03:93:1a:0c:94:56:bf:9f:50:1a:12:4f:b4:fb:54:4a:da:
         9b:fc:3e:0d:ea:c0:5c:d8:ac:59:04:ce:ba:9a:7b:c8:71:95:
         22:60:7a:d0:5d:ce:a3:51:d4:49:ea:10:51:eb:ec:2b:3a:f8:
         b7:0d:f2:6e:0d:3c:87:8a:5a:14:e8:3f:32:9a:61:b0:f9:e2:
         5c:1f:43:25:09:6b:17:ea:dd:01:78:d8:dc:fe:34:3d:53:fe:
         e2:24:9a:3b:6a:cc:8f:04:e8:31:bd:f7:49:79:6e:dd:99:09:
         a7:ef:81:c4:e2:39:59:d5:1d:64:92:d9:0f:8d:7f:1b:4d:30:
         9f:8d:f1:5a:6a:eb:3c:3e:ba:3c:65:b0:61:e1:b1:ff:3c:43:
         e4:a3:11:b0:e9:4a:06:6f:ff:2e:bc:d5:bc:c6:3c:98:17:48:
         d6:21:c5:e0:a4:71:18:f6:71:7b:39:af:03:49:b9:2e:43:a0:
         1b:47:d6:41:4f:87:71:e0:d4:f0:a4:bc:f4:5f:82:be:b4:f1:
         f6:3a:32:ba
-----BEGIN CERTIFICATE-----
MIIEJjCCAw6gAwIBAgIEEAAA3TANBgkqhkiG9w0BAQsFADBEMQswCQYDVQQGEwJE
RTEPMA0GA1UECAwGSGVzc2VuMRQwEgYDVQQKDAtwcml2YWN5aWRlYTEOMAwGA1UE
AwwFQ0EwMDEwHhcNMTkwMzIwMDg1MzMwWhcNMjAwMzE5MDg1MzMwWjBUMQswCQYD
VQQGEwJERTEPMA0GA1UECAwGSGVzc2VuMRQwEgYDVQQKDAtwcml2YWN5aWRlYTEe
MBwGA1UEAwwVcmVxdWVzdGVyLmxvY2FsZG9tYWluMIIBIjANBgkqhkiG9w0BAQEF
AAOCAQ8AMIIBCgKCAQEAzb4UT/rOAT9CIhsdnK/dktJ/22y3PjlDQ2sTA/EF9Ad0
vHZpKAuvGY7X/OPNxljyyn8IbVP8BwJEJMa0NEyMBP4zDkDiILoCc1r39U9jbszG
tt9UHTc5fVE2Jl+93D+oi2uirrad1iHn30G4eigqaEjKqC3t4elGXlpybbSEOIeR
/ZQRCyiExsIvKvsB+TZ6CXXRM4g8c0FbyL+UiXCh8MC5LlBTHrEXZGn0LYHgqQ0O
Mum6VYqF8RtvSXm0f4jDDT5UiJs9HziMBPPuamMr9cbbtIOqxHhBOn1L4cg+ccob
YVnqxsTKMl7J6b8SKebGw2P+oFXaevFgmE0m7fpwLQIDAQABo4IBDjCCAQowCwYD
VR0PBAQDAgWgMAkGA1UdEwQCMAAwEQYJYIZIAYb4QgEBBAQDAgZAMDMGCWCGSAGG
+EIBDQQmFiRPcGVuU1NMIEdlbmVyYXRlZCBTZXJ2ZXIgQ2VydGlmaWNhdGUwHQYD
VR0OBBYEFFM/7V0JB7Nle6tFySRbCXeACpbtMHQGA1UdIwRtMGuAFPSnwMyRRq9k
85HyJ/jIsm+KhzJzoUikRjBEMQswCQYDVQQGEwJERTEPMA0GA1UECAwGSGVzc2Vu
MRQwEgYDVQQKDAtwcml2YWN5aWRlYTEOMAwGA1UEAwwFQ0EwMDGCCQD7yOusg80S
BzATBgNVHSUEDDAKBggrBgEFBQcDATANBgkqhkiG9w0BAQsFAAOCAQEAObTqLmMp
RdQ2oxyWr2OjvcPGYhwJT7gVD0HHZr8di96HMDzIJX9hfyZJZXbrkLp1/3pYJ1t+
1gOTGgyUVr+fUBoST7T7VEram/w+DerAXNisWQTOupp7yHGVImB60F3Oo1HUSeoQ
UevsKzr4tw3ybg08h4paFOg/MpphsPniXB9DJQlrF+rdAXjY3P40PVP+4iSaO2rM
jwToMb33SXlu3ZkJp++BxOI5WdUdZJLZD41/G00wn43xWmrrPD66PGWwYeGx/zxD
5KMRsOlKBm//LrzVvMY8mBdI1iHF4KRxGPZxezmvA0m5LkOgG0fWQU+HceDU8KS8
9F+CvrTx9joyug==
-----END CERTIFICATE-----
