Certificate:
    Data:
        Version: 3 (0x2)
        Serial Number: 268435670 (0x100000d6)
    Signature Algorithm: sha256WithRSAEncryption
        Issuer: C=DE, ST=Hessen, O=privacyidea, CN=CA001
        Validity
            Not Before: Apr  5 08:40:11 2019 GMT
            Not After : Apr  4 08:40:11 2020 GMT
        Subject: OU=realm1, CN=cornelius/emailAddress=user@localhost.localdomain
        Subject Public Key Info:
            Public Key Algorithm: rsaEncryption
                Public-Key: (2048 bit)
                Modulus:
                    00:d1:2d:f0:ba:8e:26:76:06:d6:b0:c7:2d:d4:4e:
                    04:7a:c8:26:b9:b3:1f:1e:89:f4:45:f4:fb:28:cb:
                    e7:4d:44:f8:57:da:d7:83:37:d0:df:f0:e3:cb:f1:
                    f7:fa:ec:f7:e1:6c:52:61:e5:a2:b1:23:9a:c7:96:
                    21:2d:0f:c6:89:7a:56:6c:f3:e3:4c:cb:cc:e1:be:
                    36:ee:85:be:e6:ad:49:a7:5b:97:49:01:66:c7:c1:
                    1f:f1:26:66:0a:4f:b5:d6:74:a9:6d:c2:c9:bd:5e:
                    fe:3e:ad:91:46:f1:ee:30:d4:cd:9e:2a:eb:11:d9:
                    50:6f:80:34:4b:d8:67:5c:8d:9f:8d:19:16:d8:f6:
                    00:bb:05:7f:d4:52:c4:9b:23:34:df:85:8d:76:56:
                    c8:a2:08:4f:51:c1:a5:7c:81:e0:33:9f:69:e3:e6:
                    c2:ff:41:24:7f:c6:65:21:2d:71:15:78:7e:46:ab:
                    07:ac:39:91:91:28:bb:b3:80:cf:b6:1a:db:b1:5c:
                    bf:f3:63:40:83:b2:4a:97:80:49:65:ca:57:09:fe:
                    1d:5b:3d:f7:a4:8a:a8:1d:a8:72:c3:f0:6c:c2:8b:
                    0c:16:70:dd:73:71:c6:2c:37:94:44:e5:ab:35:e2:
                    14:43:b3:34:a3:9c:f7:bc:a6:54:b8:15:4a:34:81:
                    10:27
                Exponent: 65537 (0x10001)
        X509v3 extensions:
            X509v3 Key Usage: 
                Digital Signature, Key Encipherment
            X509v3 Basic Constraints: 
                CA:FALSE
            Netscape Cert Type: 
                SSL Server
            Netscape Comment: 
                OpenSSL Generated Server Certificate
            X509v3 Subject Key Identifier: 
                84:2F:31:1E:FB:29:F7:ED:35:0E:1E:DB:CC:F7:28:F3:BE:9F:41:91
            X509v3 Authority Key Identifier: 
                keyid:F4:A7:C0:CC:91:46:AF:64:F3:91:F2:27:F8:C8:B2:6F:8A:87:32:73
                DirName:/C=DE/ST=Hessen/O=privacyidea/CN=CA001
                serial:FB:C8:EB:AC:83:CD:12:07

            X509v3 Extended Key Usage: 
                TLS Web Server Authentication
    Signature Algorithm: sha256WithRSAEncryption
         92:ce:2b:c2:09:a9:7b:10:ed:83:dc:d2:40:db:bb:87:33:28:
         53:fb:69:e8:55:04:02:d7:1a:94:fe:42:a2:ea:09:87:dc:10:
         a3:74:66:5d:9c:85:4b:bf:16:89:a8:f9:12:38:40:b5:b0:d6:
         45:c8:50:ef:b2:ad:09:0d:c2:b2:2b:48:2e:81:1a:80:89:22:
         e2:bd:a1:cd:6e:9d:dd:13:c5:49:cb:9c:68:89:1c:d6:2a:d5:
         47:36:a3:f9:24:2a:ea:71:a2:47:66:00:98:7d:96:ae:9f:85:
         87:4b:61:ed:66:65:a7:47:7e:33:56:d5:88:e7:19:87:ee:4d:
         d2:21:b7:00:48:9b:4c:19:0d:9a:80:b8:36:18:d2:aa:17:ff:
         2a:8e:5f:fe:32:40:79:17:e4:4a:81:88:58:0e:0e:87:ac:3a:
         51:3f:3b:89:a5:82:45:03:95:c9:b5:71:b3:2a:0e:fa:c9:84:
         28:22:31:9f:01:aa:72:2a:4a:47:a6:3d:ea:71:59:f9:99:f9:
         4b:a1:5a:41:e4:13:18:0c:5f:9d:d8:2e:d2:81:1f:6b:fa:3f:
         fe:1d:ed:c6:0e:d1:94:a0:22:c8:a8:47:94:82:ff:22:e6:f2:
         fb:65:fa:fd:16:e4:87:b9:b3:38:59:f6:56:5b:4c:f3:69:04:
         05:13:c1:59
-----BEGIN CERTIFICATE-----
MIIEIjCCAwqgAwIBAgIEEAAA1jANBgkqhkiG9w0BAQsFADBEMQswCQYDVQQGEwJE
RTEPMA0GA1UECAwGSGVzc2VuMRQwEgYDVQQKDAtwcml2YWN5aWRlYTEOMAwGA1UE
AwwFQ0EwMDEwHhcNMTkwNDA1MDg0MDExWhcNMjAwNDA0MDg0MDExWjBQMQ8wDQYD
VQQLDAZyZWFsbTExEjAQBgNVBAMMCWNvcm5lbGl1czEpMCcGCSqGSIb3DQEJARYa
dXNlckBsb2NhbGhvc3QubG9jYWxkb21haW4wggEiMA0GCSqGSIb3DQEBAQUAA4IB
DwAwggEKAoIBAQDRLfC6jiZ2Btawxy3UTgR6yCa5sx8eifRF9Psoy+dNRPhX2teD
N9Df8OPL8ff67PfhbFJh5aKxI5rHliEtD8aJelZs8+NMy8zhvjbuhb7mrUmnW5dJ
AWbHwR/xJmYKT7XWdKltwsm9Xv4+rZFG8e4w1M2eKusR2VBvgDRL2GdcjZ+NGRbY
9gC7BX/UUsSbIzTfhY12VsiiCE9RwaV8geAzn2nj5sL/QSR/xmUhLXEVeH5Gqwes
OZGRKLuzgM+2GtuxXL/zY0CDskqXgEllylcJ/h1bPfekiqgdqHLD8GzCiwwWcN1z
ccYsN5RE5as14hRDszSjnPe8plS4FUo0gRAnAgMBAAGjggEOMIIBCjALBgNVHQ8E
BAMCBaAwCQYDVR0TBAIwADARBglghkgBhvhCAQEEBAMCBkAwMwYJYIZIAYb4QgEN
BCYWJE9wZW5TU0wgR2VuZXJhdGVkIFNlcnZlciBDZXJ0aWZpY2F0ZTAdBgNVHQ4E
FgQUhC8xHvsp9+01Dh7bzPco876fQZEwdAYDVR0jBG0wa4AU9KfAzJFGr2TzkfIn
+Miyb4qHMnOhSKRGMEQxCzAJBgNVBAYTAkRFMQ8wDQYDVQQIDAZIZXNzZW4xFDAS
BgNVBAoMC3ByaXZhY3lpZGVhMQ4wDAYDVQQDDAVDQTAwMYIJAPvI66yDzRIHMBMG
A1UdJQQMMAoGCCsGAQUFBwMBMA0GCSqGSIb3DQEBCwUAA4IBAQCSzivCCal7EO2D
3NJA27uHMyhT+2noVQQC1xqU/kKi6gmH3BCjdGZdnIVLvxaJqPkSOEC1sNZFyFDv
sq0JDcKyK0gugRqAiSLivaHNbp3dE8VJy5xoiRzWKtVHNqP5JCrqcaJHZgCYfZau
n4WHS2HtZmWnR34zVtWI5xmH7k3SIbcASJtMGQ2agLg2GNKqF/8qjl/+MkB5F+RK
gYhYDg6HrDpRPzuJpYJFA5XJtXGzKg76yYQoIjGfAapyKkpHpj3qcVn5mflLoVpB
5BMYDF+d2C7SgR9r+j/+He3GDtGUoCLIqEeUgv8i5vL7Zfr9FuSHubM4WfZWW0zz
aQQFE8FZ
-----END CERTIFICATE-----
