Certificate:
    Data:
        Version: 3 (0x2)
        Serial Number: 268435666 (0x100000d2)
    Signature Algorithm: sha256WithRSAEncryption
        Issuer: C=DE, ST=Hessen, O=privacyidea, CN=CA001
        Validity
            Not Before: Apr  5 08:38:03 2019 GMT
            Not After : Apr  4 08:38:03 2020 GMT
        Subject: C=DE, ST=Hessen, O=privacyidea, CN=usercert
        Subject Public Key Info:
            Public Key Algorithm: rsaEncryption
                Public-Key: (2048 bit)
                Modulus:
                    00:dc:2f:d1:5f:29:97:d4:7c:c3:53:c8:30:bd:4b:
                    67:70:2c:24:6b:b8:5e:eb:21:7a:48:12:56:7c:81:
                    5c:48:75:b6:68:eb:f6:f2:98:4e:50:51:d1:7f:6c:
                    73:f3:0a:a7:ae:be:48:5e:e5:d6:e1:d9:2a:7c:32:
                    6e:4e:fd:08:f6:5a:54:49:23:73:c3:b9:07:18:d1:
                    ef:b3:ac:f8:8a:dc:94:96:a4:90:3a:8e:74:df:e6:
                    0d:37:1b:bd:5b:b7:25:1a:56:39:da:6f:91:aa:5e:
                    1c:74:f3:f9:7c:14:01:83:12:65:76:c7:bb:fe:36:
                    5b:95:e9:72:65:83:ed:3e:98:30:71:fa:87:dd:a3:
                    36:5a:30:03:2e:26:e0:61:d1:bf:02:3f:b6:06:1f:
                    4a:89:28:1c:5c:a2:ff:4e:be:94:e6:8c:e0:da:82:
                    f1:9d:29:32:48:30:73:b4:04:f6:42:1e:be:f7:e2:
                    32:32:27:3c:9d:89:2f:70:3e:85:9a:6f:5c:c5:09:
                    c0:8c:32:2f:72:22:c9:d2:95:1f:b6:ac:72:60:72:
                    b7:82:4d:6b:ce:5b:e3:00:d0:d2:2f:58:c6:e0:10:
                    e5:51:ca:4d:3b:2e:e6:7e:ab:84:d6:56:f1:93:35:
                    a0:93:64:26:81:75:2f:91:b5:16:06:38:0b:db:cc:
                    2d:07
                Exponent: 65537 (0x10001)
        X509v3 extensions:
            X509v3 Key Usage: 
                Digital Signature, Key Encipherment
            X509v3 Basic Constraints: 
                CA:FALSE
            Netscape Cert Type: 
                SSL Server
            Netscape Comment: 
                OpenSSL Generated Server Certificate
            X509v3 Subject Key Identifier: 
                FC:14:D1:F0:4B:8D:00:90:F2:F5:B8:71:9E:4E:97:C3:92:54:AD:0B
            X509v3 Authority Key Identifier: 
                keyid:F4:A7:C0:CC:91:46:AF:64:F3:91:F2:27:F8:C8:B2:6F:8A:87:32:73
                DirName:/C=DE/ST=Hessen/O=privacyidea/CN=CA001
                serial:FB:C8:EB:AC:83:CD:12:07

            X509v3 Extended Key Usage: 
                TLS Web Server Authentication
    Signature Algorithm: sha256WithRSAEncryption
         83:eb:af:20:12:10:7f:2a:47:2c:61:83:15:87:48:3f:bb:d5:
         79:a5:32:63:6f:59:45:84:13:c1:9d:d0:7c:3e:c7:0c:8b:91:
         77:d7:f3:a6:2b:ba:c0:b6:f9:cd:0e:39:7e:6e:d0:28:87:36:
         92:27:43:dd:6c:1d:01:c4:84:f0:5d:ee:91:e2:89:3b:07:46:
         7e:32:e9:72:b7:e9:5b:9e:76:34:02:83:e0:60:14:11:a7:d3:
         d5:c0:68:b5:d1:aa:ec:0e:54:84:c0:73:ac:43:aa:92:b2:96:
         28:fc:77:d7:8b:1f:e1:36:02:c0:60:19:0c:87:b5:c2:79:3c:
         9d:b7:e5:8c:ba:88:12:9f:d0:9f:72:2a:80:a5:71:92:b0:ae:
         85:85:f8:70:06:5a:20:f5:29:3b:e8:d5:60:20:03:e4:36:c1:
         69:63:ef:a2:a2:5d:13:24:2a:6f:11:17:d8:94:35:ae:2d:8c:
         af:4f:f4:53:20:32:20:8b:42:35:31:ff:84:13:f1:fc:2b:60:
         2e:7a:8f:70:2e:38:e9:ca:b4:5d:b4:d8:45:7e:10:be:02:6d:
         6b:61:7b:c5:81:8a:32:61:0d:59:82:08:f9:46:1a:b7:09:2c:
         87:e2:eb:fe:17:ca:06:ce:d7:67:d0:b3:9c:31:ec:65:22:ae:
         e5:26:d7:9d
-----BEGIN CERTIFICATE-----
MIIEGTCCAwGgAwIBAgIEEAAA0jANBgkqhkiG9w0BAQsFADBEMQswCQYDVQQGEwJE
RTEPMA0GA1UECAwGSGVzc2VuMRQwEgYDVQQKDAtwcml2YWN5aWRlYTEOMAwGA1UE
AwwFQ0EwMDEwHhcNMTkwNDA1MDgzODAzWhcNMjAwNDA0MDgzODAzWjBHMQswCQYD
VQQGEwJERTEPMA0GA1UECAwGSGVzc2VuMRQwEgYDVQQKDAtwcml2YWN5aWRlYTER
MA8GA1UEAwwIdXNlcmNlcnQwggEiMA0GCSqGSIb3DQEBAQUAA4IBDwAwggEKAoIB
AQDcL9FfKZfUfMNTyDC9S2dwLCRruF7rIXpIElZ8gVxIdbZo6/bymE5QUdF/bHPz
Cqeuvkhe5dbh2Sp8Mm5O/Qj2WlRJI3PDuQcY0e+zrPiK3JSWpJA6jnTf5g03G71b
tyUaVjnab5GqXhx08/l8FAGDEmV2x7v+NluV6XJlg+0+mDBx+ofdozZaMAMuJuBh
0b8CP7YGH0qJKBxcov9OvpTmjODagvGdKTJIMHO0BPZCHr734jIyJzydiS9wPoWa
b1zFCcCMMi9yIsnSlR+2rHJgcreCTWvOW+MA0NIvWMbgEOVRyk07LuZ+q4TWVvGT
NaCTZCaBdS+RtRYGOAvbzC0HAgMBAAGjggEOMIIBCjALBgNVHQ8EBAMCBaAwCQYD
VR0TBAIwADARBglghkgBhvhCAQEEBAMCBkAwMwYJYIZIAYb4QgENBCYWJE9wZW5T
U0wgR2VuZXJhdGVkIFNlcnZlciBDZXJ0aWZpY2F0ZTAdBgNVHQ4EFgQU/BTR8EuN
AJDy9bhxnk6Xw5JUrQswdAYDVR0jBG0wa4AU9KfAzJFGr2TzkfIn+Miyb4qHMnOh
SKRGMEQxCzAJBgNVBAYTAkRFMQ8wDQYDVQQIDAZIZXNzZW4xFDASBgNVBAoMC3By
aXZhY3lpZGVhMQ4wDAYDVQQDDAVDQTAwMYIJAPvI66yDzRIHMBMGA1UdJQQMMAoG
CCsGAQUFBwMBMA0GCSqGSIb3DQEBCwUAA4IBAQCD668gEhB/KkcsYYMVh0g/u9V5
pTJjb1lFhBPBndB8PscMi5F31/OmK7rAtvnNDjl+btAohzaSJ0PdbB0BxITwXe6R
4ok7B0Z+Mulyt+lbnnY0AoPgYBQRp9PVwGi10arsDlSEwHOsQ6qSspYo/HfXix/h
NgLAYBkMh7XCeTydt+WMuogSn9CfciqApXGSsK6FhfhwBlog9Sk76NVgIAPkNsFp
Y++iol0TJCpvERfYlDWuLYyvT/RTIDIgi0I1Mf+EE/H8K2Aueo9wLjjpyrRdtNhF
fhC+Am1rYXvFgYoyYQ1Zggj5Rhq3CSyH4uv+F8oGztdn0LOcMexlIq7lJted
-----END CERTIFICATE-----
